; Listing generated by Microsoft (R) Optimizing Compiler Version 19.26.28806.0 

	TITLE	D:\liuyu\task\Auxiliary_maintenance\Win32\Debug\moc\moc_user_management.cpp
	.686P
	.XMM
	include listing.inc
	.model	flat

INCLUDELIB MSVCRTD
INCLUDELIB OLDNAMES

CONST	SEGMENT
?qt_meta_stringdata_user_management@@3Uqt_meta_stringdata_user_management_t@@B DD 0ffffffffH ; qt_meta_stringdata_user_management
	DD	0fH
	DD	00H
	DD	010H
	DB	075H
	DB	073H
	DB	065H
	DB	072H
	DB	05fH
	DB	06dH
	DB	061H
	DB	06eH
	DB	061H
	DB	067H
	DB	065H
	DB	06dH
	DB	065H
	DB	06eH
	DB	074H
	DB	00H
?qt_meta_data_user_management@@3QBIB DD 08H		; qt_meta_data_user_management
	DD	00H
	DD	00H
	DD	00H
	DD	00H
	DD	00H
	DD	00H
	DD	00H
	DD	00H
	DD	00H
	DD	00H
	DD	00H
	DD	00H
	DD	00H
	DD	00H
$SG105271 DB	'D:\QT\5.12.2\MSVC2017\include\QtCore\qmetatype.h', 00H
	ORG $+3
$SG105272 DB	'qRegisterNormalizedMetaType was called with a not normal'
	DB	'ized type name, please call qRegisterMetaType instead.', 00H
	ORG $+1
$SG105273 DB	'qRegisterNormalizedMetaType', 00H
$SG105599 DB	'D:\QT\5.12.2\MSVC2017\include\QtCore\qmetatype.h', 00H
	ORG $+3
$SG105600 DB	'qRegisterNormalizedMetaType was called with a not normal'
	DB	'ized type name, please call qRegisterMetaType instead.', 00H
	ORG $+1
$SG105601 DB	'qRegisterNormalizedMetaType', 00H
$SG105927 DB	'D:\QT\5.12.2\MSVC2017\include\QtCore\qmetatype.h', 00H
	ORG $+3
$SG105928 DB	'qRegisterNormalizedMetaType was called with a not normal'
	DB	'ized type name, please call qRegisterMetaType instead.', 00H
	ORG $+1
$SG105929 DB	'qRegisterNormalizedMetaType', 00H
$SG106189 DB	'invalid argument', 00H
	ORG $+3
$SG106190 DB	'%s', 00H
	ORG $+5
$SG106191 DB	'C:\Program Files (x86)\Microsoft Visual Studio\2019\Prof'
	DB	'essional\VC\Tools\MSVC\14.26.28801\include\xmemory', 00H
	ORG $+5
$SG106192 DB	'C', 00H, ':', 00H, '\', 00H, 'P', 00H, 'r', 00H, 'o', 00H
	DB	'g', 00H, 'r', 00H, 'a', 00H, 'm', 00H, ' ', 00H, 'F', 00H, 'i'
	DB	00H, 'l', 00H, 'e', 00H, 's', 00H, ' ', 00H, '(', 00H, 'x', 00H
	DB	'8', 00H, '6', 00H, ')', 00H, '\', 00H, 'M', 00H, 'i', 00H, 'c'
	DB	00H, 'r', 00H, 'o', 00H, 's', 00H, 'o', 00H, 'f', 00H, 't', 00H
	DB	' ', 00H, 'V', 00H, 'i', 00H, 's', 00H, 'u', 00H, 'a', 00H, 'l'
	DB	00H, ' ', 00H, 'S', 00H, 't', 00H, 'u', 00H, 'd', 00H, 'i', 00H
	DB	'o', 00H, '\', 00H, '2', 00H, '0', 00H, '1', 00H, '9', 00H, '\'
	DB	00H, 'P', 00H, 'r', 00H, 'o', 00H, 'f', 00H, 'e', 00H, 's', 00H
	DB	's', 00H, 'i', 00H, 'o', 00H, 'n', 00H, 'a', 00H, 'l', 00H, '\'
	DB	00H, 'V', 00H, 'C', 00H, '\', 00H, 'T', 00H, 'o', 00H, 'o', 00H
	DB	'l', 00H, 's', 00H, '\', 00H, 'M', 00H, 'S', 00H, 'V', 00H, 'C'
	DB	00H, '\', 00H, '1', 00H, '4', 00H, '.', 00H, '2', 00H, '6', 00H
	DB	'.', 00H, '2', 00H, '8', 00H, '8', 00H, '0', 00H, '1', 00H, '\'
	DB	00H, 'i', 00H, 'n', 00H, 'c', 00H, 'l', 00H, 'u', 00H, 'd', 00H
	DB	'e', 00H, '\', 00H, 'x', 00H, 'm', 00H, 'e', 00H, 'm', 00H, 'o'
	DB	00H, 'r', 00H, 'y', 00H, 00H, 00H
	ORG $+2
$SG106193 DB	's', 00H, 't', 00H, 'd', 00H, ':', 00H, ':', 00H, '_', 00H
	DB	'A', 00H, 'l', 00H, 'l', 00H, 'o', 00H, 'c', 00H, 'a', 00H, 't'
	DB	00H, 'e', 00H, '_', 00H, 'm', 00H, 'a', 00H, 'n', 00H, 'u', 00H
	DB	'a', 00H, 'l', 00H, 'l', 00H, 'y', 00H, '_', 00H, 'v', 00H, 'e'
	DB	00H, 'c', 00H, 't', 00H, 'o', 00H, 'r', 00H, '_', 00H, 'a', 00H
	DB	'l', 00H, 'i', 00H, 'g', 00H, 'n', 00H, 'e', 00H, 'd', 00H, 00H
	DB	00H
	ORG $+2
$SG106194 DB	'"', 00H, 'i', 00H, 'n', 00H, 'v', 00H, 'a', 00H, 'l', 00H
	DB	'i', 00H, 'd', 00H, ' ', 00H, 'a', 00H, 'r', 00H, 'g', 00H, 'u'
	DB	00H, 'm', 00H, 'e', 00H, 'n', 00H, 't', 00H, '"', 00H, 00H, 00H
CONST	ENDS
PUBLIC	??C?$QScopedPointer@VQObjectData@@U?$QScopedPointerDeleter@VQObjectData@@@@@@QBEPAVQObjectData@@XZ ; QScopedPointer<QObjectData,QScopedPointerDeleter<QObjectData> >::operator->
PUBLIC	?metaObject@user_management@@UBEPBUQMetaObject@@XZ ; user_management::metaObject
PUBLIC	?qt_metacast@user_management@@UAEPAXPBD@Z	; user_management::qt_metacast
PUBLIC	?qt_metacall@user_management@@UAEHW4Call@QMetaObject@@HPAPAX@Z ; user_management::qt_metacall
PUBLIC	?qt_static_metacall@user_management@@CAXPAVQObject@@W4Call@QMetaObject@@HPAPAX@Z ; user_management::qt_static_metacall
PUBLIC	?staticMetaObject@user_management@@2UQMetaObject@@B ; user_management::staticMetaObject
EXTRN	_strcmp:PROC
EXTRN	__imp_?dynamicMetaObject@QObjectData@@QBEPAUQMetaObject@@XZ:PROC
EXTRN	__imp_?qt_metacast@QWidget@@UAEPAXPBD@Z:PROC
EXTRN	__imp_?qt_metacall@QWidget@@UAEHW4Call@QMetaObject@@HPAPAX@Z:PROC
EXTRN	__imp_?staticMetaObject@QWidget@@2UQMetaObject@@B:BYTE
_BSS	SEGMENT
?staticMetaObject@user_management@@2UQMetaObject@@B DB 018H DUP (?) ; user_management::staticMetaObject
_BSS	ENDS
CRT$XCU	SEGMENT
??staticMetaObject$initializer$@user_management@@2P6AXXZA@@3P6AXXZA DD FLAT:??__E?staticMetaObject@user_management@@2UQMetaObject@@B@@YAXXZ ; ??staticMetaObject$initializer$@user_management@@2P6AXXZA@@3P6AXXZA
CRT$XCU	ENDS
; Function compile flags: /Odtp
;	COMDAT ??__E?staticMetaObject@user_management@@2UQMetaObject@@B@@YAXXZ
text$di	SEGMENT
??__E?staticMetaObject@user_management@@2UQMetaObject@@B@@YAXXZ PROC ; `dynamic initializer for 'user_management::staticMetaObject'', COMDAT
; File D:\liuyu\task\Auxiliary_maintenance\Win32\Debug\moc\moc_user_management.cpp
; Line 72
	push	ebp
	mov	ebp, esp
; Line 66
	mov	eax, DWORD PTR __imp_?staticMetaObject@QWidget@@2UQMetaObject@@B
	mov	DWORD PTR ?staticMetaObject@user_management@@2UQMetaObject@@B, eax
; Line 67
	mov	DWORD PTR ?staticMetaObject@user_management@@2UQMetaObject@@B+4, OFFSET ?qt_meta_stringdata_user_management@@3Uqt_meta_stringdata_user_management_t@@B
; Line 68
	mov	DWORD PTR ?staticMetaObject@user_management@@2UQMetaObject@@B+8, OFFSET ?qt_meta_data_user_management@@3QBIB
; Line 69
	mov	DWORD PTR ?staticMetaObject@user_management@@2UQMetaObject@@B+12, OFFSET ?qt_static_metacall@user_management@@CAXPAVQObject@@W4Call@QMetaObject@@HPAPAX@Z ; user_management::qt_static_metacall
; Line 70
	mov	DWORD PTR ?staticMetaObject@user_management@@2UQMetaObject@@B+16, 0
; Line 71
	mov	DWORD PTR ?staticMetaObject@user_management@@2UQMetaObject@@B+20, 0
	pop	ebp
	ret	0
??__E?staticMetaObject@user_management@@2UQMetaObject@@B@@YAXXZ ENDP ; `dynamic initializer for 'user_management::staticMetaObject''
text$di	ENDS
; Function compile flags: /Odtp
_TEXT	SEGMENT
__o$ = 8						; size = 4
__c$ = 12						; size = 4
__id$ = 16						; size = 4
__a$ = 20						; size = 4
?qt_static_metacall@user_management@@CAXPAVQObject@@W4Call@QMetaObject@@HPAPAX@Z PROC ; user_management::qt_static_metacall
; File D:\liuyu\task\Auxiliary_maintenance\Win32\Debug\moc\moc_user_management.cpp
; Line 58
	push	ebp
	mov	ebp, esp
; Line 63
	pop	ebp
	ret	0
?qt_static_metacall@user_management@@CAXPAVQObject@@W4Call@QMetaObject@@HPAPAX@Z ENDP ; user_management::qt_static_metacall
_TEXT	ENDS
; Function compile flags: /Odtp
_TEXT	SEGMENT
_this$ = -4						; size = 4
__c$ = 8						; size = 4
__id$ = 12						; size = 4
__a$ = 16						; size = 4
?qt_metacall@user_management@@UAEHW4Call@QMetaObject@@HPAPAX@Z PROC ; user_management::qt_metacall
; _this$ = ecx
; File D:\liuyu\task\Auxiliary_maintenance\Win32\Debug\moc\moc_user_management.cpp
; Line 89
	push	ebp
	mov	ebp, esp
	push	ecx
	mov	DWORD PTR _this$[ebp], ecx
; Line 90
	mov	eax, DWORD PTR __a$[ebp]
	push	eax
	mov	ecx, DWORD PTR __id$[ebp]
	push	ecx
	mov	edx, DWORD PTR __c$[ebp]
	push	edx
	mov	ecx, DWORD PTR _this$[ebp]
	call	DWORD PTR __imp_?qt_metacall@QWidget@@UAEHW4Call@QMetaObject@@HPAPAX@Z
	mov	DWORD PTR __id$[ebp], eax
; Line 91
	mov	eax, DWORD PTR __id$[ebp]
; Line 92
	mov	esp, ebp
	pop	ebp
	ret	12					; 0000000cH
?qt_metacall@user_management@@UAEHW4Call@QMetaObject@@HPAPAX@Z ENDP ; user_management::qt_metacall
_TEXT	ENDS
; Function compile flags: /Odtp
_TEXT	SEGMENT
_this$ = -4						; size = 4
__clname$ = 8						; size = 4
?qt_metacast@user_management@@UAEPAXPBD@Z PROC		; user_management::qt_metacast
; _this$ = ecx
; File D:\liuyu\task\Auxiliary_maintenance\Win32\Debug\moc\moc_user_management.cpp
; Line 81
	push	ebp
	mov	ebp, esp
	push	ecx
	mov	DWORD PTR _this$[ebp], ecx
; Line 82
	cmp	DWORD PTR __clname$[ebp], 0
	jne	SHORT $LN2@qt_metacas
	xor	eax, eax
	jmp	SHORT $LN1@qt_metacas
$LN2@qt_metacas:
; Line 83
	push	OFFSET ?qt_meta_stringdata_user_management@@3Uqt_meta_stringdata_user_management_t@@B+16
	mov	eax, DWORD PTR __clname$[ebp]
	push	eax
	call	_strcmp
	add	esp, 8
	test	eax, eax
	jne	SHORT $LN3@qt_metacas
; Line 84
	mov	eax, DWORD PTR _this$[ebp]
	jmp	SHORT $LN1@qt_metacas
$LN3@qt_metacas:
; Line 85
	mov	ecx, DWORD PTR __clname$[ebp]
	push	ecx
	mov	ecx, DWORD PTR _this$[ebp]
	call	DWORD PTR __imp_?qt_metacast@QWidget@@UAEPAXPBD@Z
$LN1@qt_metacas:
; Line 86
	mov	esp, ebp
	pop	ebp
	ret	4
?qt_metacast@user_management@@UAEPAXPBD@Z ENDP		; user_management::qt_metacast
_TEXT	ENDS
; Function compile flags: /Odtp
_TEXT	SEGMENT
tv82 = -8						; size = 4
_this$ = -4						; size = 4
?metaObject@user_management@@UBEPBUQMetaObject@@XZ PROC	; user_management::metaObject
; _this$ = ecx
; File D:\liuyu\task\Auxiliary_maintenance\Win32\Debug\moc\moc_user_management.cpp
; Line 76
	push	ebp
	mov	ebp, esp
	sub	esp, 8
	mov	DWORD PTR _this$[ebp], ecx
; Line 77
	mov	ecx, DWORD PTR _this$[ebp]
	add	ecx, 4
	call	??C?$QScopedPointer@VQObjectData@@U?$QScopedPointerDeleter@VQObjectData@@@@@@QBEPAVQObjectData@@XZ ; QScopedPointer<QObjectData,QScopedPointerDeleter<QObjectData> >::operator->
	cmp	DWORD PTR [eax+24], 0
	je	SHORT $LN3@metaObject
	mov	ecx, DWORD PTR _this$[ebp]
	add	ecx, 4
	call	??C?$QScopedPointer@VQObjectData@@U?$QScopedPointerDeleter@VQObjectData@@@@@@QBEPAVQObjectData@@XZ ; QScopedPointer<QObjectData,QScopedPointerDeleter<QObjectData> >::operator->
	mov	ecx, eax
	call	DWORD PTR __imp_?dynamicMetaObject@QObjectData@@QBEPAUQMetaObject@@XZ
	mov	DWORD PTR tv82[ebp], eax
	jmp	SHORT $LN4@metaObject
$LN3@metaObject:
	mov	DWORD PTR tv82[ebp], OFFSET ?staticMetaObject@user_management@@2UQMetaObject@@B ; user_management::staticMetaObject
$LN4@metaObject:
	mov	eax, DWORD PTR tv82[ebp]
; Line 78
	mov	esp, ebp
	pop	ebp
	ret	0
?metaObject@user_management@@UBEPBUQMetaObject@@XZ ENDP	; user_management::metaObject
_TEXT	ENDS
; Function compile flags: /Odtp
;	COMDAT ??C?$QScopedPointer@VQObjectData@@U?$QScopedPointerDeleter@VQObjectData@@@@@@QBEPAVQObjectData@@XZ
_TEXT	SEGMENT
_this$ = -4						; size = 4
??C?$QScopedPointer@VQObjectData@@U?$QScopedPointerDeleter@VQObjectData@@@@@@QBEPAVQObjectData@@XZ PROC ; QScopedPointer<QObjectData,QScopedPointerDeleter<QObjectData> >::operator->, COMDAT
; _this$ = ecx
; File D:\QT\5.12.2\MSVC2017\include\QtCore\qscopedpointer.h
; Line 117
	push	ebp
	mov	ebp, esp
	push	ecx
	mov	DWORD PTR _this$[ebp], ecx
; Line 118
	mov	eax, DWORD PTR _this$[ebp]
	mov	eax, DWORD PTR [eax]
; Line 119
	mov	esp, ebp
	pop	ebp
	ret	0
??C?$QScopedPointer@VQObjectData@@U?$QScopedPointerDeleter@VQObjectData@@@@@@QBEPAVQObjectData@@XZ ENDP ; QScopedPointer<QObjectData,QScopedPointerDeleter<QObjectData> >::operator->
_TEXT	ENDS
END
