; Listing generated by Microsoft (R) Optimizing Compiler Version 19.26.28806.0 

	TITLE	D:\liuyu\task\Auxiliary_maintenance\Win32\Debug\moc\moc_playerslider.cpp
	.686P
	.XMM
	include listing.inc
	.model	flat

INCLUDELIB MSVCRTD
INCLUDELIB OLDNAMES

CONST	SEGMENT
$SG106503 DB	'invalid argument', 00H
	ORG $+3
$SG106504 DB	'%s', 00H
	ORG $+1
$SG106505 DB	'C:\Program Files (x86)\Microsoft Visual Studio\2019\Prof'
	DB	'essional\VC\Tools\MSVC\14.26.28801\include\xmemory', 00H
	ORG $+5
$SG106506 DB	'C', 00H, ':', 00H, '\', 00H, 'P', 00H, 'r', 00H, 'o', 00H
	DB	'g', 00H, 'r', 00H, 'a', 00H, 'm', 00H, ' ', 00H, 'F', 00H, 'i'
	DB	00H, 'l', 00H, 'e', 00H, 's', 00H, ' ', 00H, '(', 00H, 'x', 00H
	DB	'8', 00H, '6', 00H, ')', 00H, '\', 00H, 'M', 00H, 'i', 00H, 'c'
	DB	00H, 'r', 00H, 'o', 00H, 's', 00H, 'o', 00H, 'f', 00H, 't', 00H
	DB	' ', 00H, 'V', 00H, 'i', 00H, 's', 00H, 'u', 00H, 'a', 00H, 'l'
	DB	00H, ' ', 00H, 'S', 00H, 't', 00H, 'u', 00H, 'd', 00H, 'i', 00H
	DB	'o', 00H, '\', 00H, '2', 00H, '0', 00H, '1', 00H, '9', 00H, '\'
	DB	00H, 'P', 00H, 'r', 00H, 'o', 00H, 'f', 00H, 'e', 00H, 's', 00H
	DB	's', 00H, 'i', 00H, 'o', 00H, 'n', 00H, 'a', 00H, 'l', 00H, '\'
	DB	00H, 'V', 00H, 'C', 00H, '\', 00H, 'T', 00H, 'o', 00H, 'o', 00H
	DB	'l', 00H, 's', 00H, '\', 00H, 'M', 00H, 'S', 00H, 'V', 00H, 'C'
	DB	00H, '\', 00H, '1', 00H, '4', 00H, '.', 00H, '2', 00H, '6', 00H
	DB	'.', 00H, '2', 00H, '8', 00H, '8', 00H, '0', 00H, '1', 00H, '\'
	DB	00H, 'i', 00H, 'n', 00H, 'c', 00H, 'l', 00H, 'u', 00H, 'd', 00H
	DB	'e', 00H, '\', 00H, 'x', 00H, 'm', 00H, 'e', 00H, 'm', 00H, 'o'
	DB	00H, 'r', 00H, 'y', 00H, 00H, 00H
	ORG $+2
$SG106507 DB	's', 00H, 't', 00H, 'd', 00H, ':', 00H, ':', 00H, '_', 00H
	DB	'A', 00H, 'l', 00H, 'l', 00H, 'o', 00H, 'c', 00H, 'a', 00H, 't'
	DB	00H, 'e', 00H, '_', 00H, 'm', 00H, 'a', 00H, 'n', 00H, 'u', 00H
	DB	'a', 00H, 'l', 00H, 'l', 00H, 'y', 00H, '_', 00H, 'v', 00H, 'e'
	DB	00H, 'c', 00H, 't', 00H, 'o', 00H, 'r', 00H, '_', 00H, 'a', 00H
	DB	'l', 00H, 'i', 00H, 'g', 00H, 'n', 00H, 'e', 00H, 'd', 00H, 00H
	DB	00H
	ORG $+2
$SG106508 DB	'"', 00H, 'i', 00H, 'n', 00H, 'v', 00H, 'a', 00H, 'l', 00H
	DB	'i', 00H, 'd', 00H, ' ', 00H, 'a', 00H, 'r', 00H, 'g', 00H, 'u'
	DB	00H, 'm', 00H, 'e', 00H, 'n', 00H, 't', 00H, '"', 00H, 00H, 00H
	ORG $+2
?qt_meta_stringdata_PlayerSlider@@3Uqt_meta_stringdata_PlayerSlider_t@@B DD 0ffffffffH ; qt_meta_stringdata_PlayerSlider
	DD	0cH
	DD	00H
	DD	030H
	DD	0ffffffffH
	DD	0bH
	DD	00H
	DD	02dH
	DD	0ffffffffH
	DD	00H
	DD	00H
	DD	029H
	DB	050H
	DB	06cH
	DB	061H
	DB	079H
	DB	065H
	DB	072H
	DB	053H
	DB	06cH
	DB	069H
	DB	064H
	DB	065H
	DB	072H
	DB	00H
	DB	073H
	DB	069H
	DB	067H
	DB	050H
	DB	072H
	DB	06fH
	DB	067H
	DB	072H
	DB	065H
	DB	073H
	DB	073H
	DB	00H
	DB	00H
	ORG $+2
	ORG $+4
?qt_meta_data_PlayerSlider@@3QBIB DD 08H		; qt_meta_data_PlayerSlider
	DD	00H
	DD	00H
	DD	00H
	DD	01H
	DD	0eH
	DD	00H
	DD	00H
	DD	00H
	DD	00H
	DD	00H
	DD	00H
	DD	00H
	DD	01H
	DD	01H
	DD	01H
	DD	013H
	DD	02H
	DD	06H
	DD	02bH
	DD	04H
	DD	02H
	DD	00H
$SG105585 DB	'D:\QT\5.12.2\MSVC2017\include\QtCore\qmetatype.h', 00H
	ORG $+3
$SG105586 DB	'qRegisterNormalizedMetaType was called with a not normal'
	DB	'ized type name, please call qRegisterMetaType instead.', 00H
	ORG $+1
$SG105587 DB	'qRegisterNormalizedMetaType', 00H
$SG105913 DB	'D:\QT\5.12.2\MSVC2017\include\QtCore\qmetatype.h', 00H
	ORG $+3
$SG105914 DB	'qRegisterNormalizedMetaType was called with a not normal'
	DB	'ized type name, please call qRegisterMetaType instead.', 00H
	ORG $+1
$SG105915 DB	'qRegisterNormalizedMetaType', 00H
$SG106241 DB	'D:\QT\5.12.2\MSVC2017\include\QtCore\qmetatype.h', 00H
	ORG $+3
$SG106242 DB	'qRegisterNormalizedMetaType was called with a not normal'
	DB	'ized type name, please call qRegisterMetaType instead.', 00H
	ORG $+1
$SG106243 DB	'qRegisterNormalizedMetaType', 00H
CONST	ENDS
PUBLIC	??C?$QScopedPointer@VQObjectData@@U?$QScopedPointerDeleter@VQObjectData@@@@@@QBEPAVQObjectData@@XZ ; QScopedPointer<QObjectData,QScopedPointerDeleter<QObjectData> >::operator->
PUBLIC	?metaObject@PlayerSlider@@UBEPBUQMetaObject@@XZ	; PlayerSlider::metaObject
PUBLIC	?qt_metacast@PlayerSlider@@UAEPAXPBD@Z		; PlayerSlider::qt_metacast
PUBLIC	?qt_metacall@PlayerSlider@@UAEHW4Call@QMetaObject@@HPAPAX@Z ; PlayerSlider::qt_metacall
PUBLIC	?qt_static_metacall@PlayerSlider@@CAXPAVQObject@@W4Call@QMetaObject@@HPAPAX@Z ; PlayerSlider::qt_static_metacall
PUBLIC	?sigProgress@PlayerSlider@@QAEX_J@Z		; PlayerSlider::sigProgress
PUBLIC	?staticMetaObject@PlayerSlider@@2UQMetaObject@@B ; PlayerSlider::staticMetaObject
EXTRN	_strcmp:PROC
EXTRN	__imp_?activate@QMetaObject@@SAXPAVQObject@@PBU1@HPAPAX@Z:PROC
EXTRN	__imp_?dynamicMetaObject@QObjectData@@QBEPAUQMetaObject@@XZ:PROC
EXTRN	__imp_?qt_metacast@QSlider@@UAEPAXPBD@Z:PROC
EXTRN	__imp_?qt_metacall@QSlider@@UAEHW4Call@QMetaObject@@HPAPAX@Z:PROC
EXTRN	__imp_?staticMetaObject@QSlider@@2UQMetaObject@@B:BYTE
_BSS	SEGMENT
?staticMetaObject@PlayerSlider@@2UQMetaObject@@B DB 018H DUP (?) ; PlayerSlider::staticMetaObject
_BSS	ENDS
CRT$XCU	SEGMENT
??staticMetaObject$initializer$@PlayerSlider@@2P6AXXZA@@3P6AXXZA DD FLAT:??__E?staticMetaObject@PlayerSlider@@2UQMetaObject@@B@@YAXXZ ; ??staticMetaObject$initializer$@PlayerSlider@@2P6AXXZA@@3P6AXXZA
CRT$XCU	ENDS
; Function compile flags: /Odtp
;	COMDAT ??__E?staticMetaObject@PlayerSlider@@2UQMetaObject@@B@@YAXXZ
text$di	SEGMENT
??__E?staticMetaObject@PlayerSlider@@2UQMetaObject@@B@@YAXXZ PROC ; `dynamic initializer for 'PlayerSlider::staticMetaObject'', COMDAT
; File D:\liuyu\task\Auxiliary_maintenance\Win32\Debug\moc\moc_playerslider.cpp
; Line 93
	push	ebp
	mov	ebp, esp
; Line 87
	mov	eax, DWORD PTR __imp_?staticMetaObject@QSlider@@2UQMetaObject@@B
	mov	DWORD PTR ?staticMetaObject@PlayerSlider@@2UQMetaObject@@B, eax
; Line 88
	mov	DWORD PTR ?staticMetaObject@PlayerSlider@@2UQMetaObject@@B+4, OFFSET ?qt_meta_stringdata_PlayerSlider@@3Uqt_meta_stringdata_PlayerSlider_t@@B
; Line 89
	mov	DWORD PTR ?staticMetaObject@PlayerSlider@@2UQMetaObject@@B+8, OFFSET ?qt_meta_data_PlayerSlider@@3QBIB
; Line 90
	mov	DWORD PTR ?staticMetaObject@PlayerSlider@@2UQMetaObject@@B+12, OFFSET ?qt_static_metacall@PlayerSlider@@CAXPAVQObject@@W4Call@QMetaObject@@HPAPAX@Z ; PlayerSlider::qt_static_metacall
; Line 91
	mov	DWORD PTR ?staticMetaObject@PlayerSlider@@2UQMetaObject@@B+16, 0
; Line 92
	mov	DWORD PTR ?staticMetaObject@PlayerSlider@@2UQMetaObject@@B+20, 0
	pop	ebp
	ret	0
??__E?staticMetaObject@PlayerSlider@@2UQMetaObject@@B@@YAXXZ ENDP ; `dynamic initializer for 'PlayerSlider::staticMetaObject''
text$di	ENDS
; Function compile flags: /Odtp
_TEXT	SEGMENT
__a$ = -12						; size = 8
_this$ = -4						; size = 4
__t1$ = 8						; size = 8
?sigProgress@PlayerSlider@@QAEX_J@Z PROC		; PlayerSlider::sigProgress
; _this$ = ecx
; File D:\liuyu\task\Auxiliary_maintenance\Win32\Debug\moc\moc_playerslider.cpp
; Line 128
	push	ebp
	mov	ebp, esp
	sub	esp, 12					; 0000000cH
	mov	DWORD PTR _this$[ebp], ecx
; Line 129
	mov	DWORD PTR __a$[ebp], 0
	lea	eax, DWORD PTR __t1$[ebp]
	mov	DWORD PTR __a$[ebp+4], eax
; Line 130
	lea	ecx, DWORD PTR __a$[ebp]
	push	ecx
	push	0
	push	OFFSET ?staticMetaObject@PlayerSlider@@2UQMetaObject@@B ; PlayerSlider::staticMetaObject
	mov	edx, DWORD PTR _this$[ebp]
	push	edx
	call	DWORD PTR __imp_?activate@QMetaObject@@SAXPAVQObject@@PBU1@HPAPAX@Z
	add	esp, 16					; 00000010H
; Line 131
	mov	esp, ebp
	pop	ebp
	ret	8
?sigProgress@PlayerSlider@@QAEX_J@Z ENDP		; PlayerSlider::sigProgress
_TEXT	ENDS
; Function compile flags: /Odtp
_TEXT	SEGMENT
$T1 = -24						; size = 8
_result$2 = -16						; size = 4
__t$3 = -12						; size = 4
tv69 = -8						; size = 4
tv91 = -4						; size = 4
__o$ = 8						; size = 4
__c$ = 12						; size = 4
__id$ = 16						; size = 4
__a$ = 20						; size = 4
?qt_static_metacall@PlayerSlider@@CAXPAVQObject@@W4Call@QMetaObject@@HPAPAX@Z PROC ; PlayerSlider::qt_static_metacall
; File D:\liuyu\task\Auxiliary_maintenance\Win32\Debug\moc\moc_playerslider.cpp
; Line 66
	push	ebp
	mov	ebp, esp
	sub	esp, 24					; 00000018H
; Line 67
	cmp	DWORD PTR __c$[ebp], 0
	jne	SHORT $LN4@qt_static_
; Line 68
	mov	eax, DWORD PTR __o$[ebp]
	mov	DWORD PTR __t$3[ebp], eax
; Line 70
	mov	ecx, DWORD PTR __id$[ebp]
	mov	DWORD PTR tv69[ebp], ecx
	cmp	DWORD PTR tv69[ebp], 0
	je	SHORT $LN6@qt_static_
	jmp	SHORT $LN2@qt_static_
$LN6@qt_static_:
; Line 71
	mov	edx, 4
	shl	edx, 0
	mov	eax, DWORD PTR __a$[ebp]
	mov	ecx, DWORD PTR [eax+edx]
	mov	edx, DWORD PTR [ecx+4]
	push	edx
	mov	eax, DWORD PTR [ecx]
	push	eax
	mov	ecx, DWORD PTR __t$3[ebp]
	call	?sigProgress@PlayerSlider@@QAEX_J@Z	; PlayerSlider::sigProgress
$LN2@qt_static_:
; Line 74
	jmp	$LN1@qt_static_
$LN4@qt_static_:
	cmp	DWORD PTR __c$[ebp], 10			; 0000000aH
	jne	SHORT $LN1@qt_static_
; Line 75
	mov	ecx, 4
	imul	edx, ecx, 0
	mov	eax, DWORD PTR __a$[ebp]
	mov	ecx, DWORD PTR [eax+edx]
	mov	DWORD PTR _result$2[ebp], ecx
; Line 78
	mov	DWORD PTR $T1[ebp], OFFSET ?sigProgress@PlayerSlider@@QAEX_J@Z ; PlayerSlider::sigProgress
	mov	DWORD PTR $T1[ebp+4], 0
	mov	edx, 4
	shl	edx, 0
	mov	eax, DWORD PTR __a$[ebp]
	mov	ecx, DWORD PTR [eax+edx]
	mov	edx, DWORD PTR [ecx]
	cmp	edx, DWORD PTR $T1[ebp]
	jne	SHORT $LN12@qt_static_
	mov	eax, 4
	shl	eax, 0
	mov	ecx, DWORD PTR __a$[ebp]
	mov	edx, DWORD PTR [ecx+eax]
	cmp	DWORD PTR [edx], 0
	je	SHORT $LN11@qt_static_
	mov	eax, 4
	shl	eax, 0
	mov	ecx, DWORD PTR __a$[ebp]
	mov	edx, DWORD PTR [ecx+eax]
	mov	eax, DWORD PTR [edx+4]
	cmp	eax, DWORD PTR $T1[ebp+4]
	jne	SHORT $LN12@qt_static_
$LN11@qt_static_:
	mov	DWORD PTR tv91[ebp], 1
	jmp	SHORT $LN13@qt_static_
$LN12@qt_static_:
	mov	DWORD PTR tv91[ebp], 0
$LN13@qt_static_:
	cmp	DWORD PTR tv91[ebp], 0
	je	SHORT $LN1@qt_static_
; Line 79
	mov	ecx, DWORD PTR _result$2[ebp]
	mov	DWORD PTR [ecx], 0
$LN1@qt_static_:
; Line 84
	mov	esp, ebp
	pop	ebp
	ret	0
?qt_static_metacall@PlayerSlider@@CAXPAVQObject@@W4Call@QMetaObject@@HPAPAX@Z ENDP ; PlayerSlider::qt_static_metacall
_TEXT	ENDS
; Function compile flags: /Odtp
_TEXT	SEGMENT
_this$ = -4						; size = 4
__c$ = 8						; size = 4
__id$ = 12						; size = 4
__a$ = 16						; size = 4
?qt_metacall@PlayerSlider@@UAEHW4Call@QMetaObject@@HPAPAX@Z PROC ; PlayerSlider::qt_metacall
; _this$ = ecx
; File D:\liuyu\task\Auxiliary_maintenance\Win32\Debug\moc\moc_playerslider.cpp
; Line 110
	push	ebp
	mov	ebp, esp
	push	ecx
	mov	DWORD PTR _this$[ebp], ecx
; Line 111
	mov	eax, DWORD PTR __a$[ebp]
	push	eax
	mov	ecx, DWORD PTR __id$[ebp]
	push	ecx
	mov	edx, DWORD PTR __c$[ebp]
	push	edx
	mov	ecx, DWORD PTR _this$[ebp]
	call	DWORD PTR __imp_?qt_metacall@QSlider@@UAEHW4Call@QMetaObject@@HPAPAX@Z
	mov	DWORD PTR __id$[ebp], eax
; Line 112
	cmp	DWORD PTR __id$[ebp], 0
	jge	SHORT $LN2@qt_metacal
; Line 113
	mov	eax, DWORD PTR __id$[ebp]
	jmp	SHORT $LN1@qt_metacal
$LN2@qt_metacal:
; Line 114
	cmp	DWORD PTR __c$[ebp], 0
	jne	SHORT $LN3@qt_metacal
; Line 115
	cmp	DWORD PTR __id$[ebp], 1
	jge	SHORT $LN5@qt_metacal
; Line 116
	mov	eax, DWORD PTR __a$[ebp]
	push	eax
	mov	ecx, DWORD PTR __id$[ebp]
	push	ecx
	mov	edx, DWORD PTR __c$[ebp]
	push	edx
	mov	eax, DWORD PTR _this$[ebp]
	push	eax
	call	?qt_static_metacall@PlayerSlider@@CAXPAVQObject@@W4Call@QMetaObject@@HPAPAX@Z ; PlayerSlider::qt_static_metacall
	add	esp, 16					; 00000010H
$LN5@qt_metacal:
; Line 117
	mov	ecx, DWORD PTR __id$[ebp]
	sub	ecx, 1
	mov	DWORD PTR __id$[ebp], ecx
	jmp	SHORT $LN4@qt_metacal
$LN3@qt_metacal:
; Line 118
	cmp	DWORD PTR __c$[ebp], 12			; 0000000cH
	jne	SHORT $LN4@qt_metacal
; Line 119
	cmp	DWORD PTR __id$[ebp], 1
	jge	SHORT $LN7@qt_metacal
; Line 120
	mov	edx, 4
	imul	eax, edx, 0
	mov	ecx, DWORD PTR __a$[ebp]
	mov	edx, DWORD PTR [ecx+eax]
	mov	DWORD PTR [edx], -1
$LN7@qt_metacal:
; Line 121
	mov	eax, DWORD PTR __id$[ebp]
	sub	eax, 1
	mov	DWORD PTR __id$[ebp], eax
$LN4@qt_metacal:
; Line 123
	mov	eax, DWORD PTR __id$[ebp]
$LN1@qt_metacal:
; Line 124
	mov	esp, ebp
	pop	ebp
	ret	12					; 0000000cH
?qt_metacall@PlayerSlider@@UAEHW4Call@QMetaObject@@HPAPAX@Z ENDP ; PlayerSlider::qt_metacall
_TEXT	ENDS
; Function compile flags: /Odtp
_TEXT	SEGMENT
_this$ = -4						; size = 4
__clname$ = 8						; size = 4
?qt_metacast@PlayerSlider@@UAEPAXPBD@Z PROC		; PlayerSlider::qt_metacast
; _this$ = ecx
; File D:\liuyu\task\Auxiliary_maintenance\Win32\Debug\moc\moc_playerslider.cpp
; Line 102
	push	ebp
	mov	ebp, esp
	push	ecx
	mov	DWORD PTR _this$[ebp], ecx
; Line 103
	cmp	DWORD PTR __clname$[ebp], 0
	jne	SHORT $LN2@qt_metacas
	xor	eax, eax
	jmp	SHORT $LN1@qt_metacas
$LN2@qt_metacas:
; Line 104
	push	OFFSET ?qt_meta_stringdata_PlayerSlider@@3Uqt_meta_stringdata_PlayerSlider_t@@B+48
	mov	eax, DWORD PTR __clname$[ebp]
	push	eax
	call	_strcmp
	add	esp, 8
	test	eax, eax
	jne	SHORT $LN3@qt_metacas
; Line 105
	mov	eax, DWORD PTR _this$[ebp]
	jmp	SHORT $LN1@qt_metacas
$LN3@qt_metacas:
; Line 106
	mov	ecx, DWORD PTR __clname$[ebp]
	push	ecx
	mov	ecx, DWORD PTR _this$[ebp]
	call	DWORD PTR __imp_?qt_metacast@QSlider@@UAEPAXPBD@Z
$LN1@qt_metacas:
; Line 107
	mov	esp, ebp
	pop	ebp
	ret	4
?qt_metacast@PlayerSlider@@UAEPAXPBD@Z ENDP		; PlayerSlider::qt_metacast
_TEXT	ENDS
; Function compile flags: /Odtp
_TEXT	SEGMENT
tv82 = -8						; size = 4
_this$ = -4						; size = 4
?metaObject@PlayerSlider@@UBEPBUQMetaObject@@XZ PROC	; PlayerSlider::metaObject
; _this$ = ecx
; File D:\liuyu\task\Auxiliary_maintenance\Win32\Debug\moc\moc_playerslider.cpp
; Line 97
	push	ebp
	mov	ebp, esp
	sub	esp, 8
	mov	DWORD PTR _this$[ebp], ecx
; Line 98
	mov	ecx, DWORD PTR _this$[ebp]
	add	ecx, 4
	call	??C?$QScopedPointer@VQObjectData@@U?$QScopedPointerDeleter@VQObjectData@@@@@@QBEPAVQObjectData@@XZ ; QScopedPointer<QObjectData,QScopedPointerDeleter<QObjectData> >::operator->
	cmp	DWORD PTR [eax+24], 0
	je	SHORT $LN3@metaObject
	mov	ecx, DWORD PTR _this$[ebp]
	add	ecx, 4
	call	??C?$QScopedPointer@VQObjectData@@U?$QScopedPointerDeleter@VQObjectData@@@@@@QBEPAVQObjectData@@XZ ; QScopedPointer<QObjectData,QScopedPointerDeleter<QObjectData> >::operator->
	mov	ecx, eax
	call	DWORD PTR __imp_?dynamicMetaObject@QObjectData@@QBEPAUQMetaObject@@XZ
	mov	DWORD PTR tv82[ebp], eax
	jmp	SHORT $LN4@metaObject
$LN3@metaObject:
	mov	DWORD PTR tv82[ebp], OFFSET ?staticMetaObject@PlayerSlider@@2UQMetaObject@@B ; PlayerSlider::staticMetaObject
$LN4@metaObject:
	mov	eax, DWORD PTR tv82[ebp]
; Line 99
	mov	esp, ebp
	pop	ebp
	ret	0
?metaObject@PlayerSlider@@UBEPBUQMetaObject@@XZ ENDP	; PlayerSlider::metaObject
_TEXT	ENDS
; Function compile flags: /Odtp
;	COMDAT ??C?$QScopedPointer@VQObjectData@@U?$QScopedPointerDeleter@VQObjectData@@@@@@QBEPAVQObjectData@@XZ
_TEXT	SEGMENT
_this$ = -4						; size = 4
??C?$QScopedPointer@VQObjectData@@U?$QScopedPointerDeleter@VQObjectData@@@@@@QBEPAVQObjectData@@XZ PROC ; QScopedPointer<QObjectData,QScopedPointerDeleter<QObjectData> >::operator->, COMDAT
; _this$ = ecx
; File D:\QT\5.12.2\MSVC2017\include\QtCore\qscopedpointer.h
; Line 117
	push	ebp
	mov	ebp, esp
	push	ecx
	mov	DWORD PTR _this$[ebp], ecx
; Line 118
	mov	eax, DWORD PTR _this$[ebp]
	mov	eax, DWORD PTR [eax]
; Line 119
	mov	esp, ebp
	pop	ebp
	ret	0
??C?$QScopedPointer@VQObjectData@@U?$QScopedPointerDeleter@VQObjectData@@@@@@QBEPAVQObjectData@@XZ ENDP ; QScopedPointer<QObjectData,QScopedPointerDeleter<QObjectData> >::operator->
_TEXT	ENDS
END
