; Listing generated by Microsoft (R) Optimizing Compiler Version 19.26.28806.0 

	TITLE	D:\liuyu\task\Auxiliary_maintenance\Win32\Debug\moc\moc_sign_in.cpp
	.686P
	.XMM
	include listing.inc
	.model	flat

INCLUDELIB MSVCRTD
INCLUDELIB OLDNAMES

CONST	SEGMENT
$SG409617 DB	'D:\QT\5.12.2\MSVC2017\include\QtCore\qmetatype.h', 00H
	ORG $+7
$SG409618 DB	'qRegisterNormalizedMetaType was called with a not normal'
	DB	'ized type name, please call qRegisterMetaType instead.', 00H
	ORG $+1
$SG409619 DB	'qRegisterNormalizedMetaType', 00H
$SG401547 DB	'D:\QT\5.12.2\MSVC2017\include\QtCore\qmetatype.h', 00H
	ORG $+3
$SG401548 DB	'qRegisterNormalizedMetaType was called with a not normal'
	DB	'ized type name, please call qRegisterMetaType instead.', 00H
	ORG $+1
$SG401549 DB	'qRegisterNormalizedMetaType', 00H
$SG393407 DB	'D:\QT\5.12.2\MSVC2017\include\QtCore\qmetatype.h', 00H
	ORG $+3
$SG393408 DB	'qRegisterNormalizedMetaType was called with a not normal'
	DB	'ized type name, please call qRegisterMetaType instead.', 00H
	ORG $+1
$SG393409 DB	'qRegisterNormalizedMetaType', 00H
$SG426241 DB	'D:\QT\5.12.2\MSVC2017\include\QtCore\qmetatype.h', 00H
	ORG $+3
$SG426242 DB	'qRegisterNormalizedMetaType was called with a not normal'
	DB	'ized type name, please call qRegisterMetaType instead.', 00H
	ORG $+1
$SG426243 DB	'qRegisterNormalizedMetaType', 00H
$SG418115 DB	'D:\QT\5.12.2\MSVC2017\include\QtCore\qmetatype.h', 00H
	ORG $+3
$SG418116 DB	'qRegisterNormalizedMetaType was called with a not normal'
	DB	'ized type name, please call qRegisterMetaType instead.', 00H
	ORG $+1
$SG418117 DB	'qRegisterNormalizedMetaType', 00H
$SG409971 DB	'D:\QT\5.12.2\MSVC2017\include\QtCore\qmetatype.h', 00H
	ORG $+3
$SG409972 DB	'qRegisterNormalizedMetaType was called with a not normal'
	DB	'ized type name, please call qRegisterMetaType instead.', 00H
	ORG $+1
$SG409973 DB	'qRegisterNormalizedMetaType', 00H
$SG393735 DB	'D:\QT\5.12.2\MSVC2017\include\QtCore\qmetatype.h', 00H
	ORG $+3
$SG393736 DB	'qRegisterNormalizedMetaType was called with a not normal'
	DB	'ized type name, please call qRegisterMetaType instead.', 00H
	ORG $+1
$SG401929 DB	'D:\QT\5.12.2\MSVC2017\include\QtCore\qmetatype.h', 00H
	ORG $+3
$SG393737 DB	'qRegisterNormalizedMetaType', 00H
$SG401930 DB	'qRegisterNormalizedMetaType was called with a not normal'
	DB	'ized type name, please call qRegisterMetaType instead.', 00H
	ORG $+1
$SG401931 DB	'qRegisterNormalizedMetaType', 00H
$SG426595 DB	'D:\QT\5.12.2\MSVC2017\include\QtCore\qmetatype.h', 00H
	ORG $+3
$SG426596 DB	'qRegisterNormalizedMetaType was called with a not normal'
	DB	'ized type name, please call qRegisterMetaType instead.', 00H
	ORG $+1
$SG426597 DB	'qRegisterNormalizedMetaType', 00H
$SG418469 DB	'D:\QT\5.12.2\MSVC2017\include\QtCore\qmetatype.h', 00H
	ORG $+3
$SG418470 DB	'qRegisterNormalizedMetaType was called with a not normal'
	DB	'ized type name, please call qRegisterMetaType instead.', 00H
	ORG $+1
$SG418471 DB	'qRegisterNormalizedMetaType', 00H
$SG410325 DB	'D:\QT\5.12.2\MSVC2017\include\QtCore\qmetatype.h', 00H
	ORG $+3
$SG410326 DB	'qRegisterNormalizedMetaType was called with a not normal'
	DB	'ized type name, please call qRegisterMetaType instead.', 00H
	ORG $+1
$SG410327 DB	'qRegisterNormalizedMetaType', 00H
$SG385861 DB	'D:\QT\5.12.2\MSVC2017\include\QtCore\qmetatype.h', 00H
	ORG $+3
$SG385862 DB	'qRegisterNormalizedMetaType was called with a not normal'
	DB	'ized type name, please call qRegisterMetaType instead.', 00H
	ORG $+1
$SG385863 DB	'qRegisterNormalizedMetaType', 00H
$SG394063 DB	'D:\QT\5.12.2\MSVC2017\include\QtCore\qmetatype.h', 00H
	ORG $+3
$SG394064 DB	'qRegisterNormalizedMetaType was called with a not normal'
	DB	'ized type name, please call qRegisterMetaType instead.', 00H
	ORG $+1
$SG402257 DB	'D:\QT\5.12.2\MSVC2017\include\QtCore\qmetatype.h', 00H
	ORG $+3
$SG394065 DB	'qRegisterNormalizedMetaType', 00H
$SG402258 DB	'qRegisterNormalizedMetaType was called with a not normal'
	DB	'ized type name, please call qRegisterMetaType instead.', 00H
	ORG $+1
$SG402259 DB	'qRegisterNormalizedMetaType', 00H
$SG426949 DB	'D:\QT\5.12.2\MSVC2017\include\QtCore\qmetatype.h', 00H
	ORG $+3
$SG426950 DB	'qRegisterNormalizedMetaType was called with a not normal'
	DB	'ized type name, please call qRegisterMetaType instead.', 00H
	ORG $+1
$SG426951 DB	'qRegisterNormalizedMetaType', 00H
$SG418797 DB	'D:\QT\5.12.2\MSVC2017\include\QtCore\qmetatype.h', 00H
	ORG $+3
$SG418798 DB	'qRegisterNormalizedMetaType was called with a not normal'
	DB	'ized type name, please call qRegisterMetaType instead.', 00H
	ORG $+1
$SG418799 DB	'qRegisterNormalizedMetaType', 00H
$SG410679 DB	'D:\QT\5.12.2\MSVC2017\include\QtCore\qmetatype.h', 00H
	ORG $+3
$SG410680 DB	'qRegisterNormalizedMetaType was called with a not normal'
	DB	'ized type name, please call qRegisterMetaType instead.', 00H
	ORG $+1
$SG410681 DB	'qRegisterNormalizedMetaType', 00H
$SG386189 DB	'D:\QT\5.12.2\MSVC2017\include\QtCore\qmetatype.h', 00H
	ORG $+3
$SG386190 DB	'qRegisterNormalizedMetaType was called with a not normal'
	DB	'ized type name, please call qRegisterMetaType instead.', 00H
	ORG $+1
$SG386191 DB	'qRegisterNormalizedMetaType', 00H
$SG402585 DB	'D:\QT\5.12.2\MSVC2017\include\QtCore\qmetatype.h', 00H
	ORG $+3
$SG402586 DB	'qRegisterNormalizedMetaType was called with a not normal'
	DB	'ized type name, please call qRegisterMetaType instead.', 00H
	ORG $+1
$SG402587 DB	'qRegisterNormalizedMetaType', 00H
$SG394422 DB	'D:\QT\5.12.2\MSVC2017\include\QtCore\qmetatype.h', 00H
	ORG $+3
$SG394423 DB	'qRegisterNormalizedMetaType was called with a not normal'
	DB	'ized type name, please call qRegisterMetaType instead.', 00H
	ORG $+1
$SG394424 DB	'qRegisterNormalizedMetaType', 00H
$SG427303 DB	'D:\QT\5.12.2\MSVC2017\include\QtCore\qmetatype.h', 00H
	ORG $+3
$SG427304 DB	'qRegisterNormalizedMetaType was called with a not normal'
	DB	'ized type name, please call qRegisterMetaType instead.', 00H
	ORG $+1
$SG427305 DB	'qRegisterNormalizedMetaType', 00H
$SG419151 DB	'D:\QT\5.12.2\MSVC2017\include\QtCore\qmetatype.h', 00H
	ORG $+3
$SG419152 DB	'qRegisterNormalizedMetaType was called with a not normal'
	DB	'ized type name, please call qRegisterMetaType instead.', 00H
	ORG $+1
$SG419153 DB	'qRegisterNormalizedMetaType', 00H
$SG411033 DB	'D:\QT\5.12.2\MSVC2017\include\QtCore\qmetatype.h', 00H
	ORG $+3
$SG411034 DB	'qRegisterNormalizedMetaType was called with a not normal'
	DB	'ized type name, please call qRegisterMetaType instead.', 00H
	ORG $+1
$SG411035 DB	'qRegisterNormalizedMetaType', 00H
$SG386517 DB	'D:\QT\5.12.2\MSVC2017\include\QtCore\qmetatype.h', 00H
	ORG $+3
$SG386518 DB	'qRegisterNormalizedMetaType was called with a not normal'
	DB	'ized type name, please call qRegisterMetaType instead.', 00H
	ORG $+1
$SG386519 DB	'qRegisterNormalizedMetaType', 00H
$SG402939 DB	'D:\QT\5.12.2\MSVC2017\include\QtCore\qmetatype.h', 00H
	ORG $+3
$SG402940 DB	'qRegisterNormalizedMetaType was called with a not normal'
	DB	'ized type name, please call qRegisterMetaType instead.', 00H
	ORG $+1
$SG402941 DB	'qRegisterNormalizedMetaType', 00H
$SG394750 DB	'D:\QT\5.12.2\MSVC2017\include\QtCore\qmetatype.h', 00H
	ORG $+3
$SG394751 DB	'qRegisterNormalizedMetaType was called with a not normal'
	DB	'ized type name, please call qRegisterMetaType instead.', 00H
	ORG $+1
$SG394752 DB	'qRegisterNormalizedMetaType', 00H
$SG427657 DB	'D:\QT\5.12.2\MSVC2017\include\QtCore\qmetatype.h', 00H
	ORG $+3
$SG427658 DB	'qRegisterNormalizedMetaType was called with a not normal'
	DB	'ized type name, please call qRegisterMetaType instead.', 00H
	ORG $+1
$SG427659 DB	'qRegisterNormalizedMetaType', 00H
$SG419505 DB	'D:\QT\5.12.2\MSVC2017\include\QtCore\qmetatype.h', 00H
	ORG $+3
$SG419506 DB	'qRegisterNormalizedMetaType was called with a not normal'
	DB	'ized type name, please call qRegisterMetaType instead.', 00H
	ORG $+1
$SG419507 DB	'qRegisterNormalizedMetaType', 00H
$SG411387 DB	'D:\QT\5.12.2\MSVC2017\include\QtCore\qmetatype.h', 00H
	ORG $+3
$SG411388 DB	'qRegisterNormalizedMetaType was called with a not normal'
	DB	'ized type name, please call qRegisterMetaType instead.', 00H
	ORG $+1
$SG411389 DB	'qRegisterNormalizedMetaType', 00H
$SG395078 DB	'D:\QT\5.12.2\MSVC2017\include\QtCore\qmetatype.h', 00H
	ORG $+3
$SG395079 DB	'qRegisterNormalizedMetaType was called with a not normal'
	DB	'ized type name, please call qRegisterMetaType instead.', 00H
	ORG $+1
$SG395080 DB	'qRegisterNormalizedMetaType', 00H
$SG403293 DB	'D:\QT\5.12.2\MSVC2017\include\QtCore\qmetatype.h', 00H
	ORG $+3
$SG403294 DB	'qRegisterNormalizedMetaType was called with a not normal'
	DB	'ized type name, please call qRegisterMetaType instead.', 00H
	ORG $+1
$SG403295 DB	'qRegisterNormalizedMetaType', 00H
$SG428011 DB	'D:\QT\5.12.2\MSVC2017\include\QtCore\qmetatype.h', 00H
	ORG $+3
$SG428012 DB	'qRegisterNormalizedMetaType was called with a not normal'
	DB	'ized type name, please call qRegisterMetaType instead.', 00H
	ORG $+1
$SG428013 DB	'qRegisterNormalizedMetaType', 00H
$SG419859 DB	'D:\QT\5.12.2\MSVC2017\include\QtCore\qmetatype.h', 00H
	ORG $+3
$SG419860 DB	'qRegisterNormalizedMetaType was called with a not normal'
	DB	'ized type name, please call qRegisterMetaType instead.', 00H
	ORG $+1
$SG419861 DB	'qRegisterNormalizedMetaType', 00H
$SG411741 DB	'D:\QT\5.12.2\MSVC2017\include\QtCore\qmetatype.h', 00H
	ORG $+3
$SG411742 DB	'qRegisterNormalizedMetaType was called with a not normal'
	DB	'ized type name, please call qRegisterMetaType instead.', 00H
	ORG $+1
$SG411743 DB	'qRegisterNormalizedMetaType', 00H
$SG395406 DB	'D:\QT\5.12.2\MSVC2017\include\QtCore\qmetatype.h', 00H
	ORG $+3
$SG395407 DB	'qRegisterNormalizedMetaType was called with a not normal'
	DB	'ized type name, please call qRegisterMetaType instead.', 00H
	ORG $+1
$SG395408 DB	'qRegisterNormalizedMetaType', 00H
$SG403621 DB	'D:\QT\5.12.2\MSVC2017\include\QtCore\qmetatype.h', 00H
	ORG $+3
$SG403622 DB	'qRegisterNormalizedMetaType was called with a not normal'
	DB	'ized type name, please call qRegisterMetaType instead.', 00H
	ORG $+1
$SG403623 DB	'qRegisterNormalizedMetaType', 00H
$SG387324 DB	'D:\QT\5.12.2\MSVC2017\include\QtCore\qmetatype.h', 00H
	ORG $+3
$SG387325 DB	'qRegisterNormalizedMetaType was called with a not normal'
	DB	'ized type name, please call qRegisterMetaType instead.', 00H
	ORG $+1
$SG387326 DB	'qRegisterNormalizedMetaType', 00H
$SG428365 DB	'D:\QT\5.12.2\MSVC2017\include\QtCore\qmetatype.h', 00H
	ORG $+3
$SG428366 DB	'qRegisterNormalizedMetaType was called with a not normal'
	DB	'ized type name, please call qRegisterMetaType instead.', 00H
	ORG $+1
$SG428367 DB	'qRegisterNormalizedMetaType', 00H
$SG420212 DB	'D:\QT\5.12.2\MSVC2017\include\QtCore\qmetatype.h', 00H
	ORG $+3
$SG420213 DB	'qRegisterNormalizedMetaType was called with a not normal'
	DB	'ized type name, please call qRegisterMetaType instead.', 00H
	ORG $+1
$SG420214 DB	'qRegisterNormalizedMetaType', 00H
$SG412095 DB	'D:\QT\5.12.2\MSVC2017\include\QtCore\qmetatype.h', 00H
	ORG $+3
$SG412096 DB	'qRegisterNormalizedMetaType was called with a not normal'
	DB	'ized type name, please call qRegisterMetaType instead.', 00H
	ORG $+1
$SG412097 DB	'qRegisterNormalizedMetaType', 00H
$SG395734 DB	'D:\QT\5.12.2\MSVC2017\include\QtCore\qmetatype.h', 00H
	ORG $+3
$SG395735 DB	'qRegisterNormalizedMetaType was called with a not normal'
	DB	'ized type name, please call qRegisterMetaType instead.', 00H
	ORG $+1
$SG395736 DB	'qRegisterNormalizedMetaType', 00H
$SG403975 DB	'D:\QT\5.12.2\MSVC2017\include\QtCore\qmetatype.h', 00H
	ORG $+3
$SG403976 DB	'qRegisterNormalizedMetaType was called with a not normal'
	DB	'ized type name, please call qRegisterMetaType instead.', 00H
	ORG $+1
$SG403977 DB	'qRegisterNormalizedMetaType', 00H
$SG387652 DB	'D:\QT\5.12.2\MSVC2017\include\QtCore\qmetatype.h', 00H
	ORG $+3
$SG387653 DB	'qRegisterNormalizedMetaType was called with a not normal'
	DB	'ized type name, please call qRegisterMetaType instead.', 00H
	ORG $+1
$SG387654 DB	'qRegisterNormalizedMetaType', 00H
$SG428719 DB	'D:\QT\5.12.2\MSVC2017\include\QtCore\qmetatype.h', 00H
	ORG $+3
$SG428720 DB	'qRegisterNormalizedMetaType was called with a not normal'
	DB	'ized type name, please call qRegisterMetaType instead.', 00H
	ORG $+1
$SG428721 DB	'qRegisterNormalizedMetaType', 00H
$SG420567 DB	'D:\QT\5.12.2\MSVC2017\include\QtCore\qmetatype.h', 00H
	ORG $+3
$SG420568 DB	'qRegisterNormalizedMetaType was called with a not normal'
	DB	'ized type name, please call qRegisterMetaType instead.', 00H
	ORG $+1
$SG420569 DB	'qRegisterNormalizedMetaType', 00H
$SG412449 DB	'D:\QT\5.12.2\MSVC2017\include\QtCore\qmetatype.h', 00H
	ORG $+3
$SG412450 DB	'qRegisterNormalizedMetaType was called with a not normal'
	DB	'ized type name, please call qRegisterMetaType instead.', 00H
	ORG $+1
$SG412451 DB	'qRegisterNormalizedMetaType', 00H
$SG396068 DB	'D:\QT\5.12.2\MSVC2017\include\QtCore\qmetatype.h', 00H
	ORG $+3
$SG396069 DB	'qRegisterNormalizedMetaType was called with a not normal'
	DB	'ized type name, please call qRegisterMetaType instead.', 00H
	ORG $+1
$SG396070 DB	'qRegisterNormalizedMetaType', 00H
$SG404329 DB	'D:\QT\5.12.2\MSVC2017\include\QtCore\qmetatype.h', 00H
	ORG $+3
$SG404330 DB	'qRegisterNormalizedMetaType was called with a not normal'
	DB	'ized type name, please call qRegisterMetaType instead.', 00H
	ORG $+1
$SG404331 DB	'qRegisterNormalizedMetaType', 00H
$SG387980 DB	'D:\QT\5.12.2\MSVC2017\include\QtCore\qmetatype.h', 00H
	ORG $+3
$SG387981 DB	'qRegisterNormalizedMetaType was called with a not normal'
	DB	'ized type name, please call qRegisterMetaType instead.', 00H
	ORG $+1
$SG387982 DB	'qRegisterNormalizedMetaType', 00H
$SG429073 DB	'D:\QT\5.12.2\MSVC2017\include\QtCore\qmetatype.h', 00H
	ORG $+3
$SG429074 DB	'qRegisterNormalizedMetaType was called with a not normal'
	DB	'ized type name, please call qRegisterMetaType instead.', 00H
	ORG $+1
$SG429075 DB	'qRegisterNormalizedMetaType', 00H
$SG420920 DB	'D:\QT\5.12.2\MSVC2017\include\QtCore\qmetatype.h', 00H
	ORG $+3
$SG420921 DB	'qRegisterNormalizedMetaType was called with a not normal'
	DB	'ized type name, please call qRegisterMetaType instead.', 00H
	ORG $+1
$SG420922 DB	'qRegisterNormalizedMetaType', 00H
$SG396396 DB	'D:\QT\5.12.2\MSVC2017\include\QtCore\qmetatype.h', 00H
	ORG $+3
$SG396397 DB	'qRegisterNormalizedMetaType was called with a not normal'
	DB	'ized type name, please call qRegisterMetaType instead.', 00H
	ORG $+1
$SG396398 DB	'qRegisterNormalizedMetaType', 00H
$SG412803 DB	'D:\QT\5.12.2\MSVC2017\include\QtCore\qmetatype.h', 00H
	ORG $+3
$SG412804 DB	'qRegisterNormalizedMetaType was called with a not normal'
	DB	'ized type name, please call qRegisterMetaType instead.', 00H
	ORG $+1
$SG412805 DB	'qRegisterNormalizedMetaType', 00H
$SG404657 DB	'D:\QT\5.12.2\MSVC2017\include\QtCore\qmetatype.h', 00H
	ORG $+3
$SG404658 DB	'qRegisterNormalizedMetaType was called with a not normal'
	DB	'ized type name, please call qRegisterMetaType instead.', 00H
	ORG $+1
$SG404659 DB	'qRegisterNormalizedMetaType', 00H
$SG388334 DB	'D:\QT\5.12.2\MSVC2017\include\QtCore\qmetatype.h', 00H
	ORG $+3
$SG388335 DB	'qRegisterNormalizedMetaType was called with a not normal'
	DB	'ized type name, please call qRegisterMetaType instead.', 00H
	ORG $+1
$SG388336 DB	'qRegisterNormalizedMetaType', 00H
$SG380171 DB	'containers incompatible for swap', 00H
	ORG $+3
$SG380172 DB	'%s', 00H
	ORG $+1
$SG429427 DB	'D:\QT\5.12.2\MSVC2017\include\QtCore\qmetatype.h', 00H
	ORG $+3
$SG380173 DB	'C:\Program Files (x86)\Microsoft Visual Studio\2019\Prof'
	DB	'essional\VC\Tools\MSVC\14.26.28801\include\xmemory', 00H
	ORG $+1
$SG429429 DB	'qRegisterNormalizedMetaType', 00H
$SG380174 DB	'C', 00H, ':', 00H, '\', 00H, 'P', 00H, 'r', 00H, 'o', 00H
	DB	'g', 00H, 'r', 00H, 'a', 00H, 'm', 00H, ' ', 00H, 'F', 00H, 'i'
	DB	00H, 'l', 00H, 'e', 00H, 's', 00H, ' ', 00H, '(', 00H, 'x', 00H
	DB	'8', 00H, '6', 00H, ')', 00H, '\', 00H, 'M', 00H, 'i', 00H, 'c'
	DB	00H, 'r', 00H, 'o', 00H, 's', 00H, 'o', 00H, 'f', 00H, 't', 00H
	DB	' ', 00H, 'V', 00H, 'i', 00H, 's', 00H, 'u', 00H, 'a', 00H, 'l'
	DB	00H, ' ', 00H, 'S', 00H, 't', 00H, 'u', 00H, 'd', 00H, 'i', 00H
	DB	'o', 00H, '\', 00H, '2', 00H, '0', 00H, '1', 00H, '9', 00H, '\'
	DB	00H, 'P', 00H, 'r', 00H, 'o', 00H, 'f', 00H, 'e', 00H, 's', 00H
	DB	's', 00H, 'i', 00H, 'o', 00H, 'n', 00H, 'a', 00H, 'l', 00H, '\'
	DB	00H, 'V', 00H, 'C', 00H, '\', 00H, 'T', 00H, 'o', 00H, 'o', 00H
	DB	'l', 00H, 's', 00H, '\', 00H, 'M', 00H, 'S', 00H, 'V', 00H, 'C'
	DB	00H, '\', 00H, '1', 00H, '4', 00H, '.', 00H, '2', 00H, '6', 00H
	DB	'.', 00H, '2', 00H, '8', 00H, '8', 00H, '0', 00H, '1', 00H, '\'
	DB	00H, 'i', 00H, 'n', 00H, 'c', 00H, 'l', 00H, 'u', 00H, 'd', 00H
	DB	'e', 00H, '\', 00H, 'x', 00H, 'm', 00H, 'e', 00H, 'm', 00H, 'o'
	DB	00H, 'r', 00H, 'y', 00H, 00H, 00H
	ORG $+2
$SG380175 DB	's', 00H, 't', 00H, 'd', 00H, ':', 00H, ':', 00H, '_', 00H
	DB	'P', 00H, 'o', 00H, 'c', 00H, 's', 00H, 00H, 00H
	ORG $+2
$SG380176 DB	'"', 00H, 'c', 00H, 'o', 00H, 'n', 00H, 't', 00H, 'a', 00H
	DB	'i', 00H, 'n', 00H, 'e', 00H, 'r', 00H, 's', 00H, ' ', 00H, 'i'
	DB	00H, 'n', 00H, 'c', 00H, 'o', 00H, 'm', 00H, 'p', 00H, 'a', 00H
	DB	't', 00H, 'i', 00H, 'b', 00H, 'l', 00H, 'e', 00H, ' ', 00H, 'f'
	DB	00H, 'o', 00H, 'r', 00H, ' ', 00H, 's', 00H, 'w', 00H, 'a', 00H
	DB	'p', 00H, '"', 00H, 00H, 00H
	ORG $+2
$SG429428 DB	'qRegisterNormalizedMetaType was called with a not normal'
	DB	'ized type name, please call qRegisterMetaType instead.', 00H
	ORG $+1
$SG421274 DB	'D:\QT\5.12.2\MSVC2017\include\QtCore\qmetatype.h', 00H
	ORG $+3
$SG421276 DB	'qRegisterNormalizedMetaType', 00H
$SG421275 DB	'qRegisterNormalizedMetaType was called with a not normal'
	DB	'ized type name, please call qRegisterMetaType instead.', 00H
	ORG $+1
$SG396749 DB	'D:\QT\5.12.2\MSVC2017\include\QtCore\qmetatype.h', 00H
	ORG $+3
$SG396751 DB	'qRegisterNormalizedMetaType', 00H
$SG396750 DB	'qRegisterNormalizedMetaType was called with a not normal'
	DB	'ized type name, please call qRegisterMetaType instead.', 00H
	ORG $+1
$SG413157 DB	'D:\QT\5.12.2\MSVC2017\include\QtCore\qmetatype.h', 00H
	ORG $+3
$SG413159 DB	'qRegisterNormalizedMetaType', 00H
$SG413158 DB	'qRegisterNormalizedMetaType was called with a not normal'
	DB	'ized type name, please call qRegisterMetaType instead.', 00H
	ORG $+1
$SG405011 DB	'D:\QT\5.12.2\MSVC2017\include\QtCore\qmetatype.h', 00H
	ORG $+3
$SG405013 DB	'qRegisterNormalizedMetaType', 00H
$SG405012 DB	'qRegisterNormalizedMetaType was called with a not normal'
	DB	'ized type name, please call qRegisterMetaType instead.', 00H
	ORG $+1
$SG388662 DB	'D:\QT\5.12.2\MSVC2017\include\QtCore\qmetatype.h', 00H
	ORG $+3
$SG388664 DB	'qRegisterNormalizedMetaType', 00H
$SG388663 DB	'qRegisterNormalizedMetaType was called with a not normal'
	DB	'ized type name, please call qRegisterMetaType instead.', 00H
	ORG $+1
$SG429780 DB	'D:\QT\5.12.2\MSVC2017\include\QtCore\qmetatype.h', 00H
	ORG $+3
$SG429782 DB	'qRegisterNormalizedMetaType', 00H
$SG429781 DB	'qRegisterNormalizedMetaType was called with a not normal'
	DB	'ized type name, please call qRegisterMetaType instead.', 00H
	ORG $+1
$SG421628 DB	'D:\QT\5.12.2\MSVC2017\include\QtCore\qmetatype.h', 00H
	ORG $+3
$SG421630 DB	'qRegisterNormalizedMetaType', 00H
$SG421629 DB	'qRegisterNormalizedMetaType was called with a not normal'
	DB	'ized type name, please call qRegisterMetaType instead.', 00H
	ORG $+1
$SG397103 DB	'D:\QT\5.12.2\MSVC2017\include\QtCore\qmetatype.h', 00H
	ORG $+3
$SG397105 DB	'qRegisterNormalizedMetaType', 00H
$SG397104 DB	'qRegisterNormalizedMetaType was called with a not normal'
	DB	'ized type name, please call qRegisterMetaType instead.', 00H
	ORG $+1
$SG413511 DB	'D:\QT\5.12.2\MSVC2017\include\QtCore\qmetatype.h', 00H
	ORG $+3
$SG413513 DB	'qRegisterNormalizedMetaType', 00H
$SG413512 DB	'qRegisterNormalizedMetaType was called with a not normal'
	DB	'ized type name, please call qRegisterMetaType instead.', 00H
	ORG $+1
$SG405365 DB	'D:\QT\5.12.2\MSVC2017\include\QtCore\qmetatype.h', 00H
	ORG $+3
$SG405367 DB	'qRegisterNormalizedMetaType', 00H
$SG405366 DB	'qRegisterNormalizedMetaType was called with a not normal'
	DB	'ized type name, please call qRegisterMetaType instead.', 00H
	ORG $+1
$SG388990 DB	'D:\QT\5.12.2\MSVC2017\include\QtCore\qmetatype.h', 00H
	ORG $+3
$SG388992 DB	'qRegisterNormalizedMetaType', 00H
$SG388991 DB	'qRegisterNormalizedMetaType was called with a not normal'
	DB	'ized type name, please call qRegisterMetaType instead.', 00H
	ORG $+1
$SG380906 DB	'D:\QT\5.12.2\MSVC2017\include\QtCore\qmetatype.h', 00H
	ORG $+3
$SG380908 DB	'qRegisterNormalizedMetaType', 00H
$SG380907 DB	'qRegisterNormalizedMetaType was called with a not normal'
	DB	'ized type name, please call qRegisterMetaType instead.', 00H
	ORG $+1
$SG430133 DB	'D:\QT\5.12.2\MSVC2017\include\QtCore\qmetatype.h', 00H
	ORG $+3
$SG430135 DB	'qRegisterNormalizedMetaType', 00H
$SG430134 DB	'qRegisterNormalizedMetaType was called with a not normal'
	DB	'ized type name, please call qRegisterMetaType instead.', 00H
	ORG $+1
$SG421982 DB	'D:\QT\5.12.2\MSVC2017\include\QtCore\qmetatype.h', 00H
	ORG $+3
$SG421984 DB	'qRegisterNormalizedMetaType', 00H
$SG421983 DB	'qRegisterNormalizedMetaType was called with a not normal'
	DB	'ized type name, please call qRegisterMetaType instead.', 00H
	ORG $+1
$SG397457 DB	'D:\QT\5.12.2\MSVC2017\include\QtCore\qmetatype.h', 00H
	ORG $+3
$SG397459 DB	'qRegisterNormalizedMetaType', 00H
$SG397458 DB	'qRegisterNormalizedMetaType was called with a not normal'
	DB	'ized type name, please call qRegisterMetaType instead.', 00H
	ORG $+1
$SG413865 DB	'D:\QT\5.12.2\MSVC2017\include\QtCore\qmetatype.h', 00H
	ORG $+3
$SG413867 DB	'qRegisterNormalizedMetaType', 00H
$SG413866 DB	'qRegisterNormalizedMetaType was called with a not normal'
	DB	'ized type name, please call qRegisterMetaType instead.', 00H
	ORG $+1
$SG389318 DB	'D:\QT\5.12.2\MSVC2017\include\QtCore\qmetatype.h', 00H
	ORG $+3
$SG389320 DB	'qRegisterNormalizedMetaType', 00H
$SG389319 DB	'qRegisterNormalizedMetaType was called with a not normal'
	DB	'ized type name, please call qRegisterMetaType instead.', 00H
	ORG $+1
$SG405719 DB	'D:\QT\5.12.2\MSVC2017\include\QtCore\qmetatype.h', 00H
	ORG $+3
$SG405721 DB	'qRegisterNormalizedMetaType', 00H
$SG405720 DB	'qRegisterNormalizedMetaType was called with a not normal'
	DB	'ized type name, please call qRegisterMetaType instead.', 00H
	ORG $+1
$SG430488 DB	'D:\QT\5.12.2\MSVC2017\include\QtCore\qmetatype.h', 00H
	ORG $+3
$SG430490 DB	'qRegisterNormalizedMetaType', 00H
$SG430489 DB	'qRegisterNormalizedMetaType was called with a not normal'
	DB	'ized type name, please call qRegisterMetaType instead.', 00H
	ORG $+1
$SG422336 DB	'D:\QT\5.12.2\MSVC2017\include\QtCore\qmetatype.h', 00H
	ORG $+3
$SG422338 DB	'qRegisterNormalizedMetaType', 00H
$SG422337 DB	'qRegisterNormalizedMetaType was called with a not normal'
	DB	'ized type name, please call qRegisterMetaType instead.', 00H
	ORG $+1
$SG397812 DB	'D:\QT\5.12.2\MSVC2017\include\QtCore\qmetatype.h', 00H
	ORG $+3
$SG397814 DB	'qRegisterNormalizedMetaType', 00H
$SG397813 DB	'qRegisterNormalizedMetaType was called with a not normal'
	DB	'ized type name, please call qRegisterMetaType instead.', 00H
	ORG $+1
$SG414219 DB	'D:\QT\5.12.2\MSVC2017\include\QtCore\qmetatype.h', 00H
	ORG $+3
$SG414221 DB	'qRegisterNormalizedMetaType', 00H
$SG414220 DB	'qRegisterNormalizedMetaType was called with a not normal'
	DB	'ized type name, please call qRegisterMetaType instead.', 00H
	ORG $+1
$SG389671 DB	'D:\QT\5.12.2\MSVC2017\include\QtCore\qmetatype.h', 00H
	ORG $+3
$SG389673 DB	'qRegisterNormalizedMetaType', 00H
$SG389672 DB	'qRegisterNormalizedMetaType was called with a not normal'
	DB	'ized type name, please call qRegisterMetaType instead.', 00H
	ORG $+1
$SG406073 DB	'D:\QT\5.12.2\MSVC2017\include\QtCore\qmetatype.h', 00H
	ORG $+3
$SG406075 DB	'qRegisterNormalizedMetaType', 00H
$SG406074 DB	'qRegisterNormalizedMetaType was called with a not normal'
	DB	'ized type name, please call qRegisterMetaType instead.', 00H
	ORG $+1
$SG430842 DB	'D:\QT\5.12.2\MSVC2017\include\QtCore\qmetatype.h', 00H
	ORG $+3
$SG430844 DB	'qRegisterNormalizedMetaType', 00H
$SG430843 DB	'qRegisterNormalizedMetaType was called with a not normal'
	DB	'ized type name, please call qRegisterMetaType instead.', 00H
	ORG $+1
$SG422689 DB	'D:\QT\5.12.2\MSVC2017\include\QtCore\qmetatype.h', 00H
	ORG $+3
$SG422691 DB	'qRegisterNormalizedMetaType', 00H
$SG422690 DB	'qRegisterNormalizedMetaType was called with a not normal'
	DB	'ized type name, please call qRegisterMetaType instead.', 00H
	ORG $+1
$SG398140 DB	'D:\QT\5.12.2\MSVC2017\include\QtCore\qmetatype.h', 00H
	ORG $+3
$SG398142 DB	'qRegisterNormalizedMetaType', 00H
$SG398141 DB	'qRegisterNormalizedMetaType was called with a not normal'
	DB	'ized type name, please call qRegisterMetaType instead.', 00H
	ORG $+1
$SG414573 DB	'D:\QT\5.12.2\MSVC2017\include\QtCore\qmetatype.h', 00H
	ORG $+3
$SG414575 DB	'qRegisterNormalizedMetaType', 00H
$SG414574 DB	'qRegisterNormalizedMetaType was called with a not normal'
	DB	'ized type name, please call qRegisterMetaType instead.', 00H
	ORG $+1
$SG389999 DB	'D:\QT\5.12.2\MSVC2017\include\QtCore\qmetatype.h', 00H
	ORG $+3
$SG390001 DB	'qRegisterNormalizedMetaType', 00H
$SG390000 DB	'qRegisterNormalizedMetaType was called with a not normal'
	DB	'ized type name, please call qRegisterMetaType instead.', 00H
	ORG $+1
$SG406427 DB	'D:\QT\5.12.2\MSVC2017\include\QtCore\qmetatype.h', 00H
	ORG $+3
$SG406429 DB	'qRegisterNormalizedMetaType', 00H
$SG406428 DB	'qRegisterNormalizedMetaType was called with a not normal'
	DB	'ized type name, please call qRegisterMetaType instead.', 00H
	ORG $+1
$SG431201 DB	'D:\QT\5.12.2\MSVC2017\include\QtCore\qmetatype.h', 00H
	ORG $+3
$SG431203 DB	'qRegisterNormalizedMetaType', 00H
$SG431202 DB	'qRegisterNormalizedMetaType was called with a not normal'
	DB	'ized type name, please call qRegisterMetaType instead.', 00H
	ORG $+1
$SG423044 DB	'D:\QT\5.12.2\MSVC2017\include\QtCore\qmetatype.h', 00H
	ORG $+3
$SG423046 DB	'qRegisterNormalizedMetaType', 00H
$SG423045 DB	'qRegisterNormalizedMetaType was called with a not normal'
	DB	'ized type name, please call qRegisterMetaType instead.', 00H
	ORG $+1
$SG398494 DB	'D:\QT\5.12.2\MSVC2017\include\QtCore\qmetatype.h', 00H
	ORG $+3
$SG398496 DB	'qRegisterNormalizedMetaType', 00H
$SG398495 DB	'qRegisterNormalizedMetaType was called with a not normal'
	DB	'ized type name, please call qRegisterMetaType instead.', 00H
	ORG $+1
$SG414927 DB	'D:\QT\5.12.2\MSVC2017\include\QtCore\qmetatype.h', 00H
	ORG $+3
$SG414929 DB	'qRegisterNormalizedMetaType', 00H
$SG414928 DB	'qRegisterNormalizedMetaType was called with a not normal'
	DB	'ized type name, please call qRegisterMetaType instead.', 00H
	ORG $+1
$SG406781 DB	'D:\QT\5.12.2\MSVC2017\include\QtCore\qmetatype.h', 00H
	ORG $+3
$SG406783 DB	'qRegisterNormalizedMetaType', 00H
$SG406782 DB	'qRegisterNormalizedMetaType was called with a not normal'
	DB	'ized type name, please call qRegisterMetaType instead.', 00H
	ORG $+1
?qt_meta_stringdata_Sign_in@@3Uqt_meta_stringdata_Sign_in_t@@B DD 0ffffffffH ; qt_meta_stringdata_Sign_in
	DD	07H
	DD	00H
	DD	010H
	DB	053H
	DB	069H
	DB	067H
	DB	06eH
	DB	05fH
	DB	069H
	DB	06eH
	DB	00H
?qt_meta_data_Sign_in@@3QBIB DD 08H			; qt_meta_data_Sign_in
	DD	00H
	DD	00H
	DD	00H
	DD	00H
	DD	00H
	DD	00H
	DD	00H
	DD	00H
	DD	00H
	DD	00H
	DD	00H
	DD	00H
	DD	00H
	DD	00H
$SG431555 DB	'D:\QT\5.12.2\MSVC2017\include\QtCore\qmetatype.h', 00H
	ORG $+3
$SG431556 DB	'qRegisterNormalizedMetaType was called with a not normal'
	DB	'ized type name, please call qRegisterMetaType instead.', 00H
	ORG $+1
$SG431557 DB	'qRegisterNormalizedMetaType', 00H
$SG423398 DB	'D:\QT\5.12.2\MSVC2017\include\QtCore\qmetatype.h', 00H
	ORG $+3
$SG423399 DB	'qRegisterNormalizedMetaType was called with a not normal'
	DB	'ized type name, please call qRegisterMetaType instead.', 00H
	ORG $+1
$SG423400 DB	'qRegisterNormalizedMetaType', 00H
$SG398861 DB	'D:\QT\5.12.2\MSVC2017\include\QtCore\qmetatype.h', 00H
	ORG $+3
$SG398862 DB	'qRegisterNormalizedMetaType was called with a not normal'
	DB	'ized type name, please call qRegisterMetaType instead.', 00H
	ORG $+1
$SG398863 DB	'qRegisterNormalizedMetaType', 00H
$SG415281 DB	'D:\QT\5.12.2\MSVC2017\include\QtCore\qmetatype.h', 00H
	ORG $+3
$SG415282 DB	'qRegisterNormalizedMetaType was called with a not normal'
	DB	'ized type name, please call qRegisterMetaType instead.', 00H
	ORG $+1
$SG415283 DB	'qRegisterNormalizedMetaType', 00H
$SG407135 DB	'D:\QT\5.12.2\MSVC2017\include\QtCore\qmetatype.h', 00H
	ORG $+3
$SG407136 DB	'qRegisterNormalizedMetaType was called with a not normal'
	DB	'ized type name, please call qRegisterMetaType instead.', 00H
	ORG $+1
$SG407137 DB	'qRegisterNormalizedMetaType', 00H
$SG431909 DB	'D:\QT\5.12.2\MSVC2017\include\QtCore\qmetatype.h', 00H
	ORG $+3
$SG431910 DB	'qRegisterNormalizedMetaType was called with a not normal'
	DB	'ized type name, please call qRegisterMetaType instead.', 00H
	ORG $+1
$SG431911 DB	'qRegisterNormalizedMetaType', 00H
$SG423752 DB	'D:\QT\5.12.2\MSVC2017\include\QtCore\qmetatype.h', 00H
	ORG $+3
$SG423753 DB	'qRegisterNormalizedMetaType was called with a not normal'
	DB	'ized type name, please call qRegisterMetaType instead.', 00H
	ORG $+1
$SG423754 DB	'qRegisterNormalizedMetaType', 00H
$SG415635 DB	'D:\QT\5.12.2\MSVC2017\include\QtCore\qmetatype.h', 00H
	ORG $+3
$SG415636 DB	'qRegisterNormalizedMetaType was called with a not normal'
	DB	'ized type name, please call qRegisterMetaType instead.', 00H
	ORG $+1
$SG415637 DB	'qRegisterNormalizedMetaType', 00H
$SG399255 DB	'D:\QT\5.12.2\MSVC2017\include\QtCore\qmetatype.h', 00H
	ORG $+3
$SG399256 DB	'qRegisterNormalizedMetaType was called with a not normal'
	DB	'ized type name, please call qRegisterMetaType instead.', 00H
	ORG $+1
$SG399257 DB	'qRegisterNormalizedMetaType', 00H
$SG407489 DB	'D:\QT\5.12.2\MSVC2017\include\QtCore\qmetatype.h', 00H
	ORG $+3
$SG407490 DB	'qRegisterNormalizedMetaType was called with a not normal'
	DB	'ized type name, please call qRegisterMetaType instead.', 00H
	ORG $+1
$SG407491 DB	'qRegisterNormalizedMetaType', 00H
$SG391215 DB	'D:\QT\5.12.2\MSVC2017\include\QtCore\qmetatype.h', 00H
	ORG $+3
$SG391216 DB	'qRegisterNormalizedMetaType was called with a not normal'
	DB	'ized type name, please call qRegisterMetaType instead.', 00H
	ORG $+1
$SG391217 DB	'qRegisterNormalizedMetaType', 00H
$SG424106 DB	'D:\QT\5.12.2\MSVC2017\include\QtCore\qmetatype.h', 00H
	ORG $+3
$SG424107 DB	'qRegisterNormalizedMetaType was called with a not normal'
	DB	'ized type name, please call qRegisterMetaType instead.', 00H
	ORG $+1
$SG424108 DB	'qRegisterNormalizedMetaType', 00H
$SG415989 DB	'D:\QT\5.12.2\MSVC2017\include\QtCore\qmetatype.h', 00H
	ORG $+3
$SG415990 DB	'qRegisterNormalizedMetaType was called with a not normal'
	DB	'ized type name, please call qRegisterMetaType instead.', 00H
	ORG $+1
$SG415991 DB	'qRegisterNormalizedMetaType', 00H
$SG399637 DB	'D:\QT\5.12.2\MSVC2017\include\QtCore\qmetatype.h', 00H
	ORG $+3
$SG399638 DB	'qRegisterNormalizedMetaType was called with a not normal'
	DB	'ized type name, please call qRegisterMetaType instead.', 00H
	ORG $+1
$SG399639 DB	'qRegisterNormalizedMetaType', 00H
$SG407843 DB	'D:\QT\5.12.2\MSVC2017\include\QtCore\qmetatype.h', 00H
	ORG $+3
$SG407844 DB	'qRegisterNormalizedMetaType was called with a not normal'
	DB	'ized type name, please call qRegisterMetaType instead.', 00H
	ORG $+1
$SG407845 DB	'qRegisterNormalizedMetaType', 00H
$SG391569 DB	'D:\QT\5.12.2\MSVC2017\include\QtCore\qmetatype.h', 00H
	ORG $+3
$SG391570 DB	'qRegisterNormalizedMetaType was called with a not normal'
	DB	'ized type name, please call qRegisterMetaType instead.', 00H
	ORG $+1
$SG391571 DB	'qRegisterNormalizedMetaType', 00H
$SG432572 DB	'invalid argument', 00H
	ORG $+3
$SG432573 DB	'%s', 00H
	ORG $+1
$SG424471 DB	'D:\QT\5.12.2\MSVC2017\include\QtCore\qmetatype.h', 00H
	ORG $+3
$SG432574 DB	'C:\Program Files (x86)\Microsoft Visual Studio\2019\Prof'
	DB	'essional\VC\Tools\MSVC\14.26.28801\include\xmemory', 00H
	ORG $+1
$SG424473 DB	'qRegisterNormalizedMetaType', 00H
$SG432575 DB	'C', 00H, ':', 00H, '\', 00H, 'P', 00H, 'r', 00H, 'o', 00H
	DB	'g', 00H, 'r', 00H, 'a', 00H, 'm', 00H, ' ', 00H, 'F', 00H, 'i'
	DB	00H, 'l', 00H, 'e', 00H, 's', 00H, ' ', 00H, '(', 00H, 'x', 00H
	DB	'8', 00H, '6', 00H, ')', 00H, '\', 00H, 'M', 00H, 'i', 00H, 'c'
	DB	00H, 'r', 00H, 'o', 00H, 's', 00H, 'o', 00H, 'f', 00H, 't', 00H
	DB	' ', 00H, 'V', 00H, 'i', 00H, 's', 00H, 'u', 00H, 'a', 00H, 'l'
	DB	00H, ' ', 00H, 'S', 00H, 't', 00H, 'u', 00H, 'd', 00H, 'i', 00H
	DB	'o', 00H, '\', 00H, '2', 00H, '0', 00H, '1', 00H, '9', 00H, '\'
	DB	00H, 'P', 00H, 'r', 00H, 'o', 00H, 'f', 00H, 'e', 00H, 's', 00H
	DB	's', 00H, 'i', 00H, 'o', 00H, 'n', 00H, 'a', 00H, 'l', 00H, '\'
	DB	00H, 'V', 00H, 'C', 00H, '\', 00H, 'T', 00H, 'o', 00H, 'o', 00H
	DB	'l', 00H, 's', 00H, '\', 00H, 'M', 00H, 'S', 00H, 'V', 00H, 'C'
	DB	00H, '\', 00H, '1', 00H, '4', 00H, '.', 00H, '2', 00H, '6', 00H
	DB	'.', 00H, '2', 00H, '8', 00H, '8', 00H, '0', 00H, '1', 00H, '\'
	DB	00H, 'i', 00H, 'n', 00H, 'c', 00H, 'l', 00H, 'u', 00H, 'd', 00H
	DB	'e', 00H, '\', 00H, 'x', 00H, 'm', 00H, 'e', 00H, 'm', 00H, 'o'
	DB	00H, 'r', 00H, 'y', 00H, 00H, 00H
	ORG $+2
$SG432576 DB	's', 00H, 't', 00H, 'd', 00H, ':', 00H, ':', 00H, '_', 00H
	DB	'A', 00H, 'l', 00H, 'l', 00H, 'o', 00H, 'c', 00H, 'a', 00H, 't'
	DB	00H, 'e', 00H, '_', 00H, 'm', 00H, 'a', 00H, 'n', 00H, 'u', 00H
	DB	'a', 00H, 'l', 00H, 'l', 00H, 'y', 00H, '_', 00H, 'v', 00H, 'e'
	DB	00H, 'c', 00H, 't', 00H, 'o', 00H, 'r', 00H, '_', 00H, 'a', 00H
	DB	'l', 00H, 'i', 00H, 'g', 00H, 'n', 00H, 'e', 00H, 'd', 00H, 00H
	DB	00H
	ORG $+2
$SG432577 DB	'"', 00H, 'i', 00H, 'n', 00H, 'v', 00H, 'a', 00H, 'l', 00H
	DB	'i', 00H, 'd', 00H, ' ', 00H, 'a', 00H, 'r', 00H, 'g', 00H, 'u'
	DB	00H, 'm', 00H, 'e', 00H, 'n', 00H, 't', 00H, '"', 00H, 00H, 00H
	ORG $+2
$SG424472 DB	'qRegisterNormalizedMetaType was called with a not normal'
	DB	'ized type name, please call qRegisterMetaType instead.', 00H
	ORG $+1
$SG416343 DB	'D:\QT\5.12.2\MSVC2017\include\QtCore\qmetatype.h', 00H
	ORG $+3
$SG416345 DB	'qRegisterNormalizedMetaType', 00H
$SG416344 DB	'qRegisterNormalizedMetaType was called with a not normal'
	DB	'ized type name, please call qRegisterMetaType instead.', 00H
	ORG $+1
$SG408197 DB	'D:\QT\5.12.2\MSVC2017\include\QtCore\qmetatype.h', 00H
	ORG $+3
$SG408199 DB	'qRegisterNormalizedMetaType', 00H
$SG408198 DB	'qRegisterNormalizedMetaType was called with a not normal'
	DB	'ized type name, please call qRegisterMetaType instead.', 00H
	ORG $+1
$SG400019 DB	'D:\QT\5.12.2\MSVC2017\include\QtCore\qmetatype.h', 00H
	ORG $+3
$SG400021 DB	'qRegisterNormalizedMetaType', 00H
$SG400020 DB	'qRegisterNormalizedMetaType was called with a not normal'
	DB	'ized type name, please call qRegisterMetaType instead.', 00H
	ORG $+1
$SG391922 DB	'D:\QT\5.12.2\MSVC2017\include\QtCore\qmetatype.h', 00H
	ORG $+3
$SG391924 DB	'qRegisterNormalizedMetaType', 00H
$SG391923 DB	'qRegisterNormalizedMetaType was called with a not normal'
	DB	'ized type name, please call qRegisterMetaType instead.', 00H
	ORG $+1
$SG424825 DB	'D:\QT\5.12.2\MSVC2017\include\QtCore\qmetatype.h', 00H
	ORG $+3
$SG424827 DB	'qRegisterNormalizedMetaType', 00H
$SG424826 DB	'qRegisterNormalizedMetaType was called with a not normal'
	DB	'ized type name, please call qRegisterMetaType instead.', 00H
	ORG $+1
$SG416698 DB	'D:\QT\5.12.2\MSVC2017\include\QtCore\qmetatype.h', 00H
	ORG $+3
$SG416700 DB	'qRegisterNormalizedMetaType', 00H
$SG416699 DB	'qRegisterNormalizedMetaType was called with a not normal'
	DB	'ized type name, please call qRegisterMetaType instead.', 00H
	ORG $+1
$SG408551 DB	'D:\QT\5.12.2\MSVC2017\include\QtCore\qmetatype.h', 00H
	ORG $+3
$SG408553 DB	'qRegisterNormalizedMetaType', 00H
$SG408552 DB	'qRegisterNormalizedMetaType was called with a not normal'
	DB	'ized type name, please call qRegisterMetaType instead.', 00H
	ORG $+1
$SG400401 DB	'D:\QT\5.12.2\MSVC2017\include\QtCore\qmetatype.h', 00H
	ORG $+3
$SG400403 DB	'qRegisterNormalizedMetaType', 00H
$SG400402 DB	'qRegisterNormalizedMetaType was called with a not normal'
	DB	'ized type name, please call qRegisterMetaType instead.', 00H
	ORG $+1
$SG392275 DB	'D:\QT\5.12.2\MSVC2017\include\QtCore\qmetatype.h', 00H
	ORG $+3
$SG392277 DB	'qRegisterNormalizedMetaType', 00H
$SG392276 DB	'qRegisterNormalizedMetaType was called with a not normal'
	DB	'ized type name, please call qRegisterMetaType instead.', 00H
	ORG $+1
$SG425179 DB	'D:\QT\5.12.2\MSVC2017\include\QtCore\qmetatype.h', 00H
	ORG $+3
$SG425181 DB	'qRegisterNormalizedMetaType', 00H
$SG425180 DB	'qRegisterNormalizedMetaType was called with a not normal'
	DB	'ized type name, please call qRegisterMetaType instead.', 00H
	ORG $+1
$SG417052 DB	'D:\QT\5.12.2\MSVC2017\include\QtCore\qmetatype.h', 00H
	ORG $+3
$SG417054 DB	'qRegisterNormalizedMetaType', 00H
$SG417053 DB	'qRegisterNormalizedMetaType was called with a not normal'
	DB	'ized type name, please call qRegisterMetaType instead.', 00H
	ORG $+1
$SG408905 DB	'D:\QT\5.12.2\MSVC2017\include\QtCore\qmetatype.h', 00H
	ORG $+3
$SG408907 DB	'qRegisterNormalizedMetaType', 00H
$SG408906 DB	'qRegisterNormalizedMetaType was called with a not normal'
	DB	'ized type name, please call qRegisterMetaType instead.', 00H
	ORG $+1
$SG400783 DB	'D:\QT\5.12.2\MSVC2017\include\QtCore\qmetatype.h', 00H
	ORG $+3
$SG400785 DB	'qRegisterNormalizedMetaType', 00H
$SG400784 DB	'qRegisterNormalizedMetaType was called with a not normal'
	DB	'ized type name, please call qRegisterMetaType instead.', 00H
	ORG $+1
$SG392603 DB	'D:\QT\5.12.2\MSVC2017\include\QtCore\qmetatype.h', 00H
	ORG $+3
$SG392605 DB	'qRegisterNormalizedMetaType', 00H
$SG392604 DB	'qRegisterNormalizedMetaType was called with a not normal'
	DB	'ized type name, please call qRegisterMetaType instead.', 00H
	ORG $+1
$SG425533 DB	'D:\QT\5.12.2\MSVC2017\include\QtCore\qmetatype.h', 00H
	ORG $+3
$SG425535 DB	'qRegisterNormalizedMetaType', 00H
$SG425534 DB	'qRegisterNormalizedMetaType was called with a not normal'
	DB	'ized type name, please call qRegisterMetaType instead.', 00H
	ORG $+1
$SG417407 DB	'D:\QT\5.12.2\MSVC2017\include\QtCore\qmetatype.h', 00H
	ORG $+3
$SG417409 DB	'qRegisterNormalizedMetaType', 00H
$SG417408 DB	'qRegisterNormalizedMetaType was called with a not normal'
	DB	'ized type name, please call qRegisterMetaType instead.', 00H
	ORG $+1
$SG409263 DB	'D:\QT\5.12.2\MSVC2017\include\QtCore\qmetatype.h', 00H
	ORG $+3
$SG409265 DB	'qRegisterNormalizedMetaType', 00H
$SG409264 DB	'qRegisterNormalizedMetaType was called with a not normal'
	DB	'ized type name, please call qRegisterMetaType instead.', 00H
	ORG $+1
$SG401165 DB	'D:\QT\5.12.2\MSVC2017\include\QtCore\qmetatype.h', 00H
	ORG $+3
$SG401167 DB	'qRegisterNormalizedMetaType', 00H
$SG401166 DB	'qRegisterNormalizedMetaType was called with a not normal'
	DB	'ized type name, please call qRegisterMetaType instead.', 00H
	ORG $+1
$SG384832 DB	'D:\QT\5.12.2\MSVC2017\include\QtCore\qvector.h', 00H
	ORG $+1
$SG384833 DB	'asize >= 0 && asize <= aalloc', 00H
	ORG $+2
$SG384841 DB	'D:\QT\5.12.2\MSVC2017\include\QtCore\qvector.h', 00H
	ORG $+1
$SG384842 DB	'x->ref.isSharable() || options.testFlag(QArrayData::Unsh'
	DB	'arable)', 00H
$SG384843 DB	'D:\QT\5.12.2\MSVC2017\include\QtCore\qvector.h', 00H
	ORG $+1
$SG384844 DB	'!x->ref.isStatic()', 00H
	ORG $+1
$SG384857 DB	'D:\QT\5.12.2\MSVC2017\include\QtCore\qvector.h', 00H
	ORG $+1
$SG384858 DB	'int(d->alloc) == aalloc', 00H
$SG384859 DB	'D:\QT\5.12.2\MSVC2017\include\QtCore\qvector.h', 00H
	ORG $+1
$SG384860 DB	'isDetached()', 00H
	ORG $+3
$SG384861 DB	'D:\QT\5.12.2\MSVC2017\include\QtCore\qvector.h', 00H
	ORG $+1
$SG384862 DB	'x == d', 00H
	ORG $+1
$SG384870 DB	'D:\QT\5.12.2\MSVC2017\include\QtCore\qvector.h', 00H
	ORG $+1
$SG384871 DB	'd->data()', 00H
	ORG $+2
$SG384872 DB	'D:\QT\5.12.2\MSVC2017\include\QtCore\qvector.h', 00H
	ORG $+1
$SG384873 DB	'uint(d->size) <= d->alloc', 00H
	ORG $+2
$SG384874 DB	'D:\QT\5.12.2\MSVC2017\include\QtCore\qvector.h', 00H
	ORG $+1
$SG384875 DB	'd != Data::unsharableEmpty()', 00H
	ORG $+3
$SG384876 DB	'D:\QT\5.12.2\MSVC2017\include\QtCore\qvector.h', 00H
	ORG $+1
$SG384877 DB	'aalloc ? d != Data::sharedNull() : d == Data::sharedNull'
	DB	'()', 00H
	ORG $+1
$SG384878 DB	'D:\QT\5.12.2\MSVC2017\include\QtCore\qvector.h', 00H
	ORG $+1
$SG384879 DB	'd->alloc >= uint(aalloc)', 00H
	ORG $+3
$SG384880 DB	'D:\QT\5.12.2\MSVC2017\include\QtCore\qvector.h', 00H
	ORG $+1
$SG384881 DB	'd->size == asize', 00H
	ORG $+3
$SG393079 DB	'D:\QT\5.12.2\MSVC2017\include\QtCore\qmetatype.h', 00H
	ORG $+3
$SG393081 DB	'qRegisterNormalizedMetaType', 00H
$SG393080 DB	'qRegisterNormalizedMetaType was called with a not normal'
	DB	'ized type name, please call qRegisterMetaType instead.', 00H
	ORG $+1
$SG425887 DB	'D:\QT\5.12.2\MSVC2017\include\QtCore\qmetatype.h', 00H
	ORG $+3
$SG425889 DB	'qRegisterNormalizedMetaType', 00H
$SG425888 DB	'qRegisterNormalizedMetaType was called with a not normal'
	DB	'ized type name, please call qRegisterMetaType instead.', 00H
	ORG $+1
$SG417761 DB	'D:\QT\5.12.2\MSVC2017\include\QtCore\qmetatype.h', 00H
	ORG $+3
$SG417763 DB	'qRegisterNormalizedMetaType', 00H
$SG417762 DB	'qRegisterNormalizedMetaType was called with a not normal'
	DB	'ized type name, please call qRegisterMetaType instead.', 00H
CONST	ENDS
PUBLIC	??C?$QScopedPointer@VQObjectData@@U?$QScopedPointerDeleter@VQObjectData@@@@@@QBEPAVQObjectData@@XZ ; QScopedPointer<QObjectData,QScopedPointerDeleter<QObjectData> >::operator->
PUBLIC	?metaObject@Sign_in@@UBEPBUQMetaObject@@XZ	; Sign_in::metaObject
PUBLIC	?qt_metacast@Sign_in@@UAEPAXPBD@Z		; Sign_in::qt_metacast
PUBLIC	?qt_metacall@Sign_in@@UAEHW4Call@QMetaObject@@HPAPAX@Z ; Sign_in::qt_metacall
PUBLIC	?qt_static_metacall@Sign_in@@CAXPAVQObject@@W4Call@QMetaObject@@HPAPAX@Z ; Sign_in::qt_static_metacall
PUBLIC	?staticMetaObject@Sign_in@@2UQMetaObject@@B	; Sign_in::staticMetaObject
EXTRN	_strcmp:PROC
EXTRN	__imp_?dynamicMetaObject@QObjectData@@QBEPAUQMetaObject@@XZ:PROC
EXTRN	__imp_?qt_metacast@QMainWindow@@UAEPAXPBD@Z:PROC
EXTRN	__imp_?qt_metacall@QMainWindow@@UAEHW4Call@QMetaObject@@HPAPAX@Z:PROC
EXTRN	__imp_?staticMetaObject@QMainWindow@@2UQMetaObject@@B:BYTE
_BSS	SEGMENT
?staticMetaObject@Sign_in@@2UQMetaObject@@B DB 018H DUP (?) ; Sign_in::staticMetaObject
_BSS	ENDS
CRT$XCU	SEGMENT
??staticMetaObject$initializer$@Sign_in@@2P6AXXZA@@3P6AXXZA DD FLAT:??__E?staticMetaObject@Sign_in@@2UQMetaObject@@B@@YAXXZ ; ??staticMetaObject$initializer$@Sign_in@@2P6AXXZA@@3P6AXXZA
CRT$XCU	ENDS
; Function compile flags: /Odtp
;	COMDAT ??__E?staticMetaObject@Sign_in@@2UQMetaObject@@B@@YAXXZ
text$di	SEGMENT
??__E?staticMetaObject@Sign_in@@2UQMetaObject@@B@@YAXXZ PROC ; `dynamic initializer for 'Sign_in::staticMetaObject'', COMDAT
; File D:\liuyu\task\Auxiliary_maintenance\Win32\Debug\moc\moc_sign_in.cpp
; Line 72
	push	ebp
	mov	ebp, esp
; Line 66
	mov	eax, DWORD PTR __imp_?staticMetaObject@QMainWindow@@2UQMetaObject@@B
	mov	DWORD PTR ?staticMetaObject@Sign_in@@2UQMetaObject@@B, eax
; Line 67
	mov	DWORD PTR ?staticMetaObject@Sign_in@@2UQMetaObject@@B+4, OFFSET ?qt_meta_stringdata_Sign_in@@3Uqt_meta_stringdata_Sign_in_t@@B
; Line 68
	mov	DWORD PTR ?staticMetaObject@Sign_in@@2UQMetaObject@@B+8, OFFSET ?qt_meta_data_Sign_in@@3QBIB
; Line 69
	mov	DWORD PTR ?staticMetaObject@Sign_in@@2UQMetaObject@@B+12, OFFSET ?qt_static_metacall@Sign_in@@CAXPAVQObject@@W4Call@QMetaObject@@HPAPAX@Z ; Sign_in::qt_static_metacall
; Line 70
	mov	DWORD PTR ?staticMetaObject@Sign_in@@2UQMetaObject@@B+16, 0
; Line 71
	mov	DWORD PTR ?staticMetaObject@Sign_in@@2UQMetaObject@@B+20, 0
	pop	ebp
	ret	0
??__E?staticMetaObject@Sign_in@@2UQMetaObject@@B@@YAXXZ ENDP ; `dynamic initializer for 'Sign_in::staticMetaObject''
text$di	ENDS
; Function compile flags: /Odtp
_TEXT	SEGMENT
__o$ = 8						; size = 4
__c$ = 12						; size = 4
__id$ = 16						; size = 4
__a$ = 20						; size = 4
?qt_static_metacall@Sign_in@@CAXPAVQObject@@W4Call@QMetaObject@@HPAPAX@Z PROC ; Sign_in::qt_static_metacall
; File D:\liuyu\task\Auxiliary_maintenance\Win32\Debug\moc\moc_sign_in.cpp
; Line 58
	push	ebp
	mov	ebp, esp
; Line 63
	pop	ebp
	ret	0
?qt_static_metacall@Sign_in@@CAXPAVQObject@@W4Call@QMetaObject@@HPAPAX@Z ENDP ; Sign_in::qt_static_metacall
_TEXT	ENDS
; Function compile flags: /Odtp
_TEXT	SEGMENT
_this$ = -4						; size = 4
__c$ = 8						; size = 4
__id$ = 12						; size = 4
__a$ = 16						; size = 4
?qt_metacall@Sign_in@@UAEHW4Call@QMetaObject@@HPAPAX@Z PROC ; Sign_in::qt_metacall
; _this$ = ecx
; File D:\liuyu\task\Auxiliary_maintenance\Win32\Debug\moc\moc_sign_in.cpp
; Line 89
	push	ebp
	mov	ebp, esp
	push	ecx
	mov	DWORD PTR _this$[ebp], ecx
; Line 90
	mov	eax, DWORD PTR __a$[ebp]
	push	eax
	mov	ecx, DWORD PTR __id$[ebp]
	push	ecx
	mov	edx, DWORD PTR __c$[ebp]
	push	edx
	mov	ecx, DWORD PTR _this$[ebp]
	call	DWORD PTR __imp_?qt_metacall@QMainWindow@@UAEHW4Call@QMetaObject@@HPAPAX@Z
	mov	DWORD PTR __id$[ebp], eax
; Line 91
	mov	eax, DWORD PTR __id$[ebp]
; Line 92
	mov	esp, ebp
	pop	ebp
	ret	12					; 0000000cH
?qt_metacall@Sign_in@@UAEHW4Call@QMetaObject@@HPAPAX@Z ENDP ; Sign_in::qt_metacall
_TEXT	ENDS
; Function compile flags: /Odtp
_TEXT	SEGMENT
_this$ = -4						; size = 4
__clname$ = 8						; size = 4
?qt_metacast@Sign_in@@UAEPAXPBD@Z PROC			; Sign_in::qt_metacast
; _this$ = ecx
; File D:\liuyu\task\Auxiliary_maintenance\Win32\Debug\moc\moc_sign_in.cpp
; Line 81
	push	ebp
	mov	ebp, esp
	push	ecx
	mov	DWORD PTR _this$[ebp], ecx
; Line 82
	cmp	DWORD PTR __clname$[ebp], 0
	jne	SHORT $LN2@qt_metacas
	xor	eax, eax
	jmp	SHORT $LN1@qt_metacas
$LN2@qt_metacas:
; Line 83
	push	OFFSET ?qt_meta_stringdata_Sign_in@@3Uqt_meta_stringdata_Sign_in_t@@B+16
	mov	eax, DWORD PTR __clname$[ebp]
	push	eax
	call	_strcmp
	add	esp, 8
	test	eax, eax
	jne	SHORT $LN3@qt_metacas
; Line 84
	mov	eax, DWORD PTR _this$[ebp]
	jmp	SHORT $LN1@qt_metacas
$LN3@qt_metacas:
; Line 85
	mov	ecx, DWORD PTR __clname$[ebp]
	push	ecx
	mov	ecx, DWORD PTR _this$[ebp]
	call	DWORD PTR __imp_?qt_metacast@QMainWindow@@UAEPAXPBD@Z
$LN1@qt_metacas:
; Line 86
	mov	esp, ebp
	pop	ebp
	ret	4
?qt_metacast@Sign_in@@UAEPAXPBD@Z ENDP			; Sign_in::qt_metacast
_TEXT	ENDS
; Function compile flags: /Odtp
_TEXT	SEGMENT
tv82 = -8						; size = 4
_this$ = -4						; size = 4
?metaObject@Sign_in@@UBEPBUQMetaObject@@XZ PROC		; Sign_in::metaObject
; _this$ = ecx
; File D:\liuyu\task\Auxiliary_maintenance\Win32\Debug\moc\moc_sign_in.cpp
; Line 76
	push	ebp
	mov	ebp, esp
	sub	esp, 8
	mov	DWORD PTR _this$[ebp], ecx
; Line 77
	mov	ecx, DWORD PTR _this$[ebp]
	add	ecx, 4
	call	??C?$QScopedPointer@VQObjectData@@U?$QScopedPointerDeleter@VQObjectData@@@@@@QBEPAVQObjectData@@XZ ; QScopedPointer<QObjectData,QScopedPointerDeleter<QObjectData> >::operator->
	cmp	DWORD PTR [eax+24], 0
	je	SHORT $LN3@metaObject
	mov	ecx, DWORD PTR _this$[ebp]
	add	ecx, 4
	call	??C?$QScopedPointer@VQObjectData@@U?$QScopedPointerDeleter@VQObjectData@@@@@@QBEPAVQObjectData@@XZ ; QScopedPointer<QObjectData,QScopedPointerDeleter<QObjectData> >::operator->
	mov	ecx, eax
	call	DWORD PTR __imp_?dynamicMetaObject@QObjectData@@QBEPAUQMetaObject@@XZ
	mov	DWORD PTR tv82[ebp], eax
	jmp	SHORT $LN4@metaObject
$LN3@metaObject:
	mov	DWORD PTR tv82[ebp], OFFSET ?staticMetaObject@Sign_in@@2UQMetaObject@@B ; Sign_in::staticMetaObject
$LN4@metaObject:
	mov	eax, DWORD PTR tv82[ebp]
; Line 78
	mov	esp, ebp
	pop	ebp
	ret	0
?metaObject@Sign_in@@UBEPBUQMetaObject@@XZ ENDP		; Sign_in::metaObject
_TEXT	ENDS
; Function compile flags: /Odtp
;	COMDAT ??C?$QScopedPointer@VQObjectData@@U?$QScopedPointerDeleter@VQObjectData@@@@@@QBEPAVQObjectData@@XZ
_TEXT	SEGMENT
_this$ = -4						; size = 4
??C?$QScopedPointer@VQObjectData@@U?$QScopedPointerDeleter@VQObjectData@@@@@@QBEPAVQObjectData@@XZ PROC ; QScopedPointer<QObjectData,QScopedPointerDeleter<QObjectData> >::operator->, COMDAT
; _this$ = ecx
; File D:\QT\5.12.2\MSVC2017\include\QtCore\qscopedpointer.h
; Line 117
	push	ebp
	mov	ebp, esp
	push	ecx
	mov	DWORD PTR _this$[ebp], ecx
; Line 118
	mov	eax, DWORD PTR _this$[ebp]
	mov	eax, DWORD PTR [eax]
; Line 119
	mov	esp, ebp
	pop	ebp
	ret	0
??C?$QScopedPointer@VQObjectData@@U?$QScopedPointerDeleter@VQObjectData@@@@@@QBEPAVQObjectData@@XZ ENDP ; QScopedPointer<QObjectData,QScopedPointerDeleter<QObjectData> >::operator->
_TEXT	ENDS
END
