; Listing generated by Microsoft (R) Optimizing Compiler Version 19.26.28806.0 

	TITLE	D:\liuyu\task\Auxiliary_maintenance\Win32\Debug\moc\moc_mainscence.cpp
	.686P
	.XMM
	include listing.inc
	.model	flat

INCLUDELIB MSVCRTD
INCLUDELIB OLDNAMES

CONST	SEGMENT
$SG401503 DB	'D:\QT\5.12.2\MSVC2017\include\QtCore\qmetatype.h', 00H
	ORG $+7
$SG401504 DB	'qRegisterNormalizedMetaType was called with a not normal'
	DB	'ized type name, please call qRegisterMetaType instead.', 00H
	ORG $+1
$SG401505 DB	'qRegisterNormalizedMetaType', 00H
$SG393363 DB	'D:\QT\5.12.2\MSVC2017\include\QtCore\qmetatype.h', 00H
	ORG $+3
$SG393364 DB	'qRegisterNormalizedMetaType was called with a not normal'
	DB	'ized type name, please call qRegisterMetaType instead.', 00H
	ORG $+1
$SG393365 DB	'qRegisterNormalizedMetaType', 00H
$SG426197 DB	'D:\QT\5.12.2\MSVC2017\include\QtCore\qmetatype.h', 00H
	ORG $+3
$SG426198 DB	'qRegisterNormalizedMetaType was called with a not normal'
	DB	'ized type name, please call qRegisterMetaType instead.', 00H
	ORG $+1
$SG426199 DB	'qRegisterNormalizedMetaType', 00H
$SG418071 DB	'D:\QT\5.12.2\MSVC2017\include\QtCore\qmetatype.h', 00H
	ORG $+3
$SG418072 DB	'qRegisterNormalizedMetaType was called with a not normal'
	DB	'ized type name, please call qRegisterMetaType instead.', 00H
	ORG $+1
$SG418073 DB	'qRegisterNormalizedMetaType', 00H
$SG409927 DB	'D:\QT\5.12.2\MSVC2017\include\QtCore\qmetatype.h', 00H
	ORG $+3
$SG409928 DB	'qRegisterNormalizedMetaType was called with a not normal'
	DB	'ized type name, please call qRegisterMetaType instead.', 00H
	ORG $+1
$SG409929 DB	'qRegisterNormalizedMetaType', 00H
$SG393691 DB	'D:\QT\5.12.2\MSVC2017\include\QtCore\qmetatype.h', 00H
	ORG $+3
$SG393692 DB	'qRegisterNormalizedMetaType was called with a not normal'
	DB	'ized type name, please call qRegisterMetaType instead.', 00H
	ORG $+1
$SG401885 DB	'D:\QT\5.12.2\MSVC2017\include\QtCore\qmetatype.h', 00H
	ORG $+3
$SG393693 DB	'qRegisterNormalizedMetaType', 00H
$SG401886 DB	'qRegisterNormalizedMetaType was called with a not normal'
	DB	'ized type name, please call qRegisterMetaType instead.', 00H
	ORG $+1
$SG401887 DB	'qRegisterNormalizedMetaType', 00H
$SG426551 DB	'D:\QT\5.12.2\MSVC2017\include\QtCore\qmetatype.h', 00H
	ORG $+3
$SG426552 DB	'qRegisterNormalizedMetaType was called with a not normal'
	DB	'ized type name, please call qRegisterMetaType instead.', 00H
	ORG $+1
$SG426553 DB	'qRegisterNormalizedMetaType', 00H
$SG418425 DB	'D:\QT\5.12.2\MSVC2017\include\QtCore\qmetatype.h', 00H
	ORG $+3
$SG418426 DB	'qRegisterNormalizedMetaType was called with a not normal'
	DB	'ized type name, please call qRegisterMetaType instead.', 00H
	ORG $+1
$SG418427 DB	'qRegisterNormalizedMetaType', 00H
$SG410281 DB	'D:\QT\5.12.2\MSVC2017\include\QtCore\qmetatype.h', 00H
	ORG $+3
$SG410282 DB	'qRegisterNormalizedMetaType was called with a not normal'
	DB	'ized type name, please call qRegisterMetaType instead.', 00H
	ORG $+1
$SG410283 DB	'qRegisterNormalizedMetaType', 00H
$SG385817 DB	'D:\QT\5.12.2\MSVC2017\include\QtCore\qmetatype.h', 00H
	ORG $+3
$SG385818 DB	'qRegisterNormalizedMetaType was called with a not normal'
	DB	'ized type name, please call qRegisterMetaType instead.', 00H
	ORG $+1
$SG385819 DB	'qRegisterNormalizedMetaType', 00H
$SG394019 DB	'D:\QT\5.12.2\MSVC2017\include\QtCore\qmetatype.h', 00H
	ORG $+3
$SG394020 DB	'qRegisterNormalizedMetaType was called with a not normal'
	DB	'ized type name, please call qRegisterMetaType instead.', 00H
	ORG $+1
$SG402213 DB	'D:\QT\5.12.2\MSVC2017\include\QtCore\qmetatype.h', 00H
	ORG $+3
$SG394021 DB	'qRegisterNormalizedMetaType', 00H
$SG402214 DB	'qRegisterNormalizedMetaType was called with a not normal'
	DB	'ized type name, please call qRegisterMetaType instead.', 00H
	ORG $+1
$SG402215 DB	'qRegisterNormalizedMetaType', 00H
$SG426905 DB	'D:\QT\5.12.2\MSVC2017\include\QtCore\qmetatype.h', 00H
	ORG $+3
$SG426906 DB	'qRegisterNormalizedMetaType was called with a not normal'
	DB	'ized type name, please call qRegisterMetaType instead.', 00H
	ORG $+1
$SG426907 DB	'qRegisterNormalizedMetaType', 00H
$SG418753 DB	'D:\QT\5.12.2\MSVC2017\include\QtCore\qmetatype.h', 00H
	ORG $+3
$SG418754 DB	'qRegisterNormalizedMetaType was called with a not normal'
	DB	'ized type name, please call qRegisterMetaType instead.', 00H
	ORG $+1
$SG418755 DB	'qRegisterNormalizedMetaType', 00H
$SG410635 DB	'D:\QT\5.12.2\MSVC2017\include\QtCore\qmetatype.h', 00H
	ORG $+3
$SG410636 DB	'qRegisterNormalizedMetaType was called with a not normal'
	DB	'ized type name, please call qRegisterMetaType instead.', 00H
	ORG $+1
$SG410637 DB	'qRegisterNormalizedMetaType', 00H
$SG386145 DB	'D:\QT\5.12.2\MSVC2017\include\QtCore\qmetatype.h', 00H
	ORG $+3
$SG386146 DB	'qRegisterNormalizedMetaType was called with a not normal'
	DB	'ized type name, please call qRegisterMetaType instead.', 00H
	ORG $+1
$SG386147 DB	'qRegisterNormalizedMetaType', 00H
$SG402541 DB	'D:\QT\5.12.2\MSVC2017\include\QtCore\qmetatype.h', 00H
	ORG $+3
$SG402542 DB	'qRegisterNormalizedMetaType was called with a not normal'
	DB	'ized type name, please call qRegisterMetaType instead.', 00H
	ORG $+1
$SG402543 DB	'qRegisterNormalizedMetaType', 00H
$SG394378 DB	'D:\QT\5.12.2\MSVC2017\include\QtCore\qmetatype.h', 00H
	ORG $+3
$SG394379 DB	'qRegisterNormalizedMetaType was called with a not normal'
	DB	'ized type name, please call qRegisterMetaType instead.', 00H
	ORG $+1
$SG394380 DB	'qRegisterNormalizedMetaType', 00H
$SG427259 DB	'D:\QT\5.12.2\MSVC2017\include\QtCore\qmetatype.h', 00H
	ORG $+3
$SG427260 DB	'qRegisterNormalizedMetaType was called with a not normal'
	DB	'ized type name, please call qRegisterMetaType instead.', 00H
	ORG $+1
$SG427261 DB	'qRegisterNormalizedMetaType', 00H
$SG419107 DB	'D:\QT\5.12.2\MSVC2017\include\QtCore\qmetatype.h', 00H
	ORG $+3
$SG419108 DB	'qRegisterNormalizedMetaType was called with a not normal'
	DB	'ized type name, please call qRegisterMetaType instead.', 00H
	ORG $+1
$SG419109 DB	'qRegisterNormalizedMetaType', 00H
$SG410989 DB	'D:\QT\5.12.2\MSVC2017\include\QtCore\qmetatype.h', 00H
	ORG $+3
$SG410990 DB	'qRegisterNormalizedMetaType was called with a not normal'
	DB	'ized type name, please call qRegisterMetaType instead.', 00H
	ORG $+1
$SG410991 DB	'qRegisterNormalizedMetaType', 00H
$SG386473 DB	'D:\QT\5.12.2\MSVC2017\include\QtCore\qmetatype.h', 00H
	ORG $+3
$SG386474 DB	'qRegisterNormalizedMetaType was called with a not normal'
	DB	'ized type name, please call qRegisterMetaType instead.', 00H
	ORG $+1
$SG386475 DB	'qRegisterNormalizedMetaType', 00H
$SG402895 DB	'D:\QT\5.12.2\MSVC2017\include\QtCore\qmetatype.h', 00H
	ORG $+3
$SG402896 DB	'qRegisterNormalizedMetaType was called with a not normal'
	DB	'ized type name, please call qRegisterMetaType instead.', 00H
	ORG $+1
$SG402897 DB	'qRegisterNormalizedMetaType', 00H
$SG394706 DB	'D:\QT\5.12.2\MSVC2017\include\QtCore\qmetatype.h', 00H
	ORG $+3
$SG394707 DB	'qRegisterNormalizedMetaType was called with a not normal'
	DB	'ized type name, please call qRegisterMetaType instead.', 00H
	ORG $+1
$SG394708 DB	'qRegisterNormalizedMetaType', 00H
$SG427613 DB	'D:\QT\5.12.2\MSVC2017\include\QtCore\qmetatype.h', 00H
	ORG $+3
$SG427614 DB	'qRegisterNormalizedMetaType was called with a not normal'
	DB	'ized type name, please call qRegisterMetaType instead.', 00H
	ORG $+1
$SG427615 DB	'qRegisterNormalizedMetaType', 00H
$SG419461 DB	'D:\QT\5.12.2\MSVC2017\include\QtCore\qmetatype.h', 00H
	ORG $+3
$SG419462 DB	'qRegisterNormalizedMetaType was called with a not normal'
	DB	'ized type name, please call qRegisterMetaType instead.', 00H
	ORG $+1
$SG419463 DB	'qRegisterNormalizedMetaType', 00H
$SG411343 DB	'D:\QT\5.12.2\MSVC2017\include\QtCore\qmetatype.h', 00H
	ORG $+3
$SG411344 DB	'qRegisterNormalizedMetaType was called with a not normal'
	DB	'ized type name, please call qRegisterMetaType instead.', 00H
	ORG $+1
$SG411345 DB	'qRegisterNormalizedMetaType', 00H
$SG395034 DB	'D:\QT\5.12.2\MSVC2017\include\QtCore\qmetatype.h', 00H
	ORG $+3
$SG395035 DB	'qRegisterNormalizedMetaType was called with a not normal'
	DB	'ized type name, please call qRegisterMetaType instead.', 00H
	ORG $+1
$SG395036 DB	'qRegisterNormalizedMetaType', 00H
$SG403249 DB	'D:\QT\5.12.2\MSVC2017\include\QtCore\qmetatype.h', 00H
	ORG $+3
$SG403250 DB	'qRegisterNormalizedMetaType was called with a not normal'
	DB	'ized type name, please call qRegisterMetaType instead.', 00H
	ORG $+1
$SG403251 DB	'qRegisterNormalizedMetaType', 00H
$SG427967 DB	'D:\QT\5.12.2\MSVC2017\include\QtCore\qmetatype.h', 00H
	ORG $+3
$SG427968 DB	'qRegisterNormalizedMetaType was called with a not normal'
	DB	'ized type name, please call qRegisterMetaType instead.', 00H
	ORG $+1
$SG427969 DB	'qRegisterNormalizedMetaType', 00H
$SG419815 DB	'D:\QT\5.12.2\MSVC2017\include\QtCore\qmetatype.h', 00H
	ORG $+3
$SG419816 DB	'qRegisterNormalizedMetaType was called with a not normal'
	DB	'ized type name, please call qRegisterMetaType instead.', 00H
	ORG $+1
$SG419817 DB	'qRegisterNormalizedMetaType', 00H
$SG411697 DB	'D:\QT\5.12.2\MSVC2017\include\QtCore\qmetatype.h', 00H
	ORG $+3
$SG411698 DB	'qRegisterNormalizedMetaType was called with a not normal'
	DB	'ized type name, please call qRegisterMetaType instead.', 00H
	ORG $+1
$SG411699 DB	'qRegisterNormalizedMetaType', 00H
$SG395362 DB	'D:\QT\5.12.2\MSVC2017\include\QtCore\qmetatype.h', 00H
	ORG $+3
$SG395363 DB	'qRegisterNormalizedMetaType was called with a not normal'
	DB	'ized type name, please call qRegisterMetaType instead.', 00H
	ORG $+1
$SG395364 DB	'qRegisterNormalizedMetaType', 00H
$SG403577 DB	'D:\QT\5.12.2\MSVC2017\include\QtCore\qmetatype.h', 00H
	ORG $+3
$SG403578 DB	'qRegisterNormalizedMetaType was called with a not normal'
	DB	'ized type name, please call qRegisterMetaType instead.', 00H
	ORG $+1
$SG403579 DB	'qRegisterNormalizedMetaType', 00H
$SG387280 DB	'D:\QT\5.12.2\MSVC2017\include\QtCore\qmetatype.h', 00H
	ORG $+3
$SG387281 DB	'qRegisterNormalizedMetaType was called with a not normal'
	DB	'ized type name, please call qRegisterMetaType instead.', 00H
	ORG $+1
$SG387282 DB	'qRegisterNormalizedMetaType', 00H
$SG428321 DB	'D:\QT\5.12.2\MSVC2017\include\QtCore\qmetatype.h', 00H
	ORG $+3
$SG428322 DB	'qRegisterNormalizedMetaType was called with a not normal'
	DB	'ized type name, please call qRegisterMetaType instead.', 00H
	ORG $+1
$SG428323 DB	'qRegisterNormalizedMetaType', 00H
$SG420168 DB	'D:\QT\5.12.2\MSVC2017\include\QtCore\qmetatype.h', 00H
	ORG $+3
$SG420169 DB	'qRegisterNormalizedMetaType was called with a not normal'
	DB	'ized type name, please call qRegisterMetaType instead.', 00H
	ORG $+1
$SG420170 DB	'qRegisterNormalizedMetaType', 00H
$SG412051 DB	'D:\QT\5.12.2\MSVC2017\include\QtCore\qmetatype.h', 00H
	ORG $+3
$SG412052 DB	'qRegisterNormalizedMetaType was called with a not normal'
	DB	'ized type name, please call qRegisterMetaType instead.', 00H
	ORG $+1
$SG412053 DB	'qRegisterNormalizedMetaType', 00H
$SG395690 DB	'D:\QT\5.12.2\MSVC2017\include\QtCore\qmetatype.h', 00H
	ORG $+3
$SG395691 DB	'qRegisterNormalizedMetaType was called with a not normal'
	DB	'ized type name, please call qRegisterMetaType instead.', 00H
	ORG $+1
$SG395692 DB	'qRegisterNormalizedMetaType', 00H
$SG403931 DB	'D:\QT\5.12.2\MSVC2017\include\QtCore\qmetatype.h', 00H
	ORG $+3
$SG403932 DB	'qRegisterNormalizedMetaType was called with a not normal'
	DB	'ized type name, please call qRegisterMetaType instead.', 00H
	ORG $+1
$SG403933 DB	'qRegisterNormalizedMetaType', 00H
$SG387608 DB	'D:\QT\5.12.2\MSVC2017\include\QtCore\qmetatype.h', 00H
	ORG $+3
$SG387609 DB	'qRegisterNormalizedMetaType was called with a not normal'
	DB	'ized type name, please call qRegisterMetaType instead.', 00H
	ORG $+1
$SG387610 DB	'qRegisterNormalizedMetaType', 00H
$SG428675 DB	'D:\QT\5.12.2\MSVC2017\include\QtCore\qmetatype.h', 00H
	ORG $+3
$SG428676 DB	'qRegisterNormalizedMetaType was called with a not normal'
	DB	'ized type name, please call qRegisterMetaType instead.', 00H
	ORG $+1
$SG428677 DB	'qRegisterNormalizedMetaType', 00H
$SG420523 DB	'D:\QT\5.12.2\MSVC2017\include\QtCore\qmetatype.h', 00H
	ORG $+3
$SG420524 DB	'qRegisterNormalizedMetaType was called with a not normal'
	DB	'ized type name, please call qRegisterMetaType instead.', 00H
	ORG $+1
$SG420525 DB	'qRegisterNormalizedMetaType', 00H
$SG412405 DB	'D:\QT\5.12.2\MSVC2017\include\QtCore\qmetatype.h', 00H
	ORG $+3
$SG412406 DB	'qRegisterNormalizedMetaType was called with a not normal'
	DB	'ized type name, please call qRegisterMetaType instead.', 00H
	ORG $+1
$SG412407 DB	'qRegisterNormalizedMetaType', 00H
$SG396024 DB	'D:\QT\5.12.2\MSVC2017\include\QtCore\qmetatype.h', 00H
	ORG $+3
$SG396025 DB	'qRegisterNormalizedMetaType was called with a not normal'
	DB	'ized type name, please call qRegisterMetaType instead.', 00H
	ORG $+1
$SG396026 DB	'qRegisterNormalizedMetaType', 00H
$SG404285 DB	'D:\QT\5.12.2\MSVC2017\include\QtCore\qmetatype.h', 00H
	ORG $+3
$SG404286 DB	'qRegisterNormalizedMetaType was called with a not normal'
	DB	'ized type name, please call qRegisterMetaType instead.', 00H
	ORG $+1
$SG404287 DB	'qRegisterNormalizedMetaType', 00H
$SG387936 DB	'D:\QT\5.12.2\MSVC2017\include\QtCore\qmetatype.h', 00H
	ORG $+3
$SG387937 DB	'qRegisterNormalizedMetaType was called with a not normal'
	DB	'ized type name, please call qRegisterMetaType instead.', 00H
	ORG $+1
$SG387938 DB	'qRegisterNormalizedMetaType', 00H
$SG429029 DB	'D:\QT\5.12.2\MSVC2017\include\QtCore\qmetatype.h', 00H
	ORG $+3
$SG429030 DB	'qRegisterNormalizedMetaType was called with a not normal'
	DB	'ized type name, please call qRegisterMetaType instead.', 00H
	ORG $+1
$SG429031 DB	'qRegisterNormalizedMetaType', 00H
$SG420876 DB	'D:\QT\5.12.2\MSVC2017\include\QtCore\qmetatype.h', 00H
	ORG $+3
$SG420877 DB	'qRegisterNormalizedMetaType was called with a not normal'
	DB	'ized type name, please call qRegisterMetaType instead.', 00H
	ORG $+1
$SG420878 DB	'qRegisterNormalizedMetaType', 00H
$SG396352 DB	'D:\QT\5.12.2\MSVC2017\include\QtCore\qmetatype.h', 00H
	ORG $+3
$SG396353 DB	'qRegisterNormalizedMetaType was called with a not normal'
	DB	'ized type name, please call qRegisterMetaType instead.', 00H
	ORG $+1
$SG396354 DB	'qRegisterNormalizedMetaType', 00H
$SG412759 DB	'D:\QT\5.12.2\MSVC2017\include\QtCore\qmetatype.h', 00H
	ORG $+3
$SG412760 DB	'qRegisterNormalizedMetaType was called with a not normal'
	DB	'ized type name, please call qRegisterMetaType instead.', 00H
	ORG $+1
$SG412761 DB	'qRegisterNormalizedMetaType', 00H
$SG404613 DB	'D:\QT\5.12.2\MSVC2017\include\QtCore\qmetatype.h', 00H
	ORG $+3
$SG404614 DB	'qRegisterNormalizedMetaType was called with a not normal'
	DB	'ized type name, please call qRegisterMetaType instead.', 00H
	ORG $+1
$SG404615 DB	'qRegisterNormalizedMetaType', 00H
$SG388290 DB	'D:\QT\5.12.2\MSVC2017\include\QtCore\qmetatype.h', 00H
	ORG $+3
$SG388291 DB	'qRegisterNormalizedMetaType was called with a not normal'
	DB	'ized type name, please call qRegisterMetaType instead.', 00H
	ORG $+1
$SG388292 DB	'qRegisterNormalizedMetaType', 00H
$SG380127 DB	'containers incompatible for swap', 00H
	ORG $+3
$SG380128 DB	'%s', 00H
	ORG $+1
$SG429383 DB	'D:\QT\5.12.2\MSVC2017\include\QtCore\qmetatype.h', 00H
	ORG $+3
$SG380129 DB	'C:\Program Files (x86)\Microsoft Visual Studio\2019\Prof'
	DB	'essional\VC\Tools\MSVC\14.26.28801\include\xmemory', 00H
	ORG $+1
$SG429385 DB	'qRegisterNormalizedMetaType', 00H
$SG380130 DB	'C', 00H, ':', 00H, '\', 00H, 'P', 00H, 'r', 00H, 'o', 00H
	DB	'g', 00H, 'r', 00H, 'a', 00H, 'm', 00H, ' ', 00H, 'F', 00H, 'i'
	DB	00H, 'l', 00H, 'e', 00H, 's', 00H, ' ', 00H, '(', 00H, 'x', 00H
	DB	'8', 00H, '6', 00H, ')', 00H, '\', 00H, 'M', 00H, 'i', 00H, 'c'
	DB	00H, 'r', 00H, 'o', 00H, 's', 00H, 'o', 00H, 'f', 00H, 't', 00H
	DB	' ', 00H, 'V', 00H, 'i', 00H, 's', 00H, 'u', 00H, 'a', 00H, 'l'
	DB	00H, ' ', 00H, 'S', 00H, 't', 00H, 'u', 00H, 'd', 00H, 'i', 00H
	DB	'o', 00H, '\', 00H, '2', 00H, '0', 00H, '1', 00H, '9', 00H, '\'
	DB	00H, 'P', 00H, 'r', 00H, 'o', 00H, 'f', 00H, 'e', 00H, 's', 00H
	DB	's', 00H, 'i', 00H, 'o', 00H, 'n', 00H, 'a', 00H, 'l', 00H, '\'
	DB	00H, 'V', 00H, 'C', 00H, '\', 00H, 'T', 00H, 'o', 00H, 'o', 00H
	DB	'l', 00H, 's', 00H, '\', 00H, 'M', 00H, 'S', 00H, 'V', 00H, 'C'
	DB	00H, '\', 00H, '1', 00H, '4', 00H, '.', 00H, '2', 00H, '6', 00H
	DB	'.', 00H, '2', 00H, '8', 00H, '8', 00H, '0', 00H, '1', 00H, '\'
	DB	00H, 'i', 00H, 'n', 00H, 'c', 00H, 'l', 00H, 'u', 00H, 'd', 00H
	DB	'e', 00H, '\', 00H, 'x', 00H, 'm', 00H, 'e', 00H, 'm', 00H, 'o'
	DB	00H, 'r', 00H, 'y', 00H, 00H, 00H
	ORG $+2
$SG380131 DB	's', 00H, 't', 00H, 'd', 00H, ':', 00H, ':', 00H, '_', 00H
	DB	'P', 00H, 'o', 00H, 'c', 00H, 's', 00H, 00H, 00H
	ORG $+2
$SG380132 DB	'"', 00H, 'c', 00H, 'o', 00H, 'n', 00H, 't', 00H, 'a', 00H
	DB	'i', 00H, 'n', 00H, 'e', 00H, 'r', 00H, 's', 00H, ' ', 00H, 'i'
	DB	00H, 'n', 00H, 'c', 00H, 'o', 00H, 'm', 00H, 'p', 00H, 'a', 00H
	DB	't', 00H, 'i', 00H, 'b', 00H, 'l', 00H, 'e', 00H, ' ', 00H, 'f'
	DB	00H, 'o', 00H, 'r', 00H, ' ', 00H, 's', 00H, 'w', 00H, 'a', 00H
	DB	'p', 00H, '"', 00H, 00H, 00H
	ORG $+2
$SG429384 DB	'qRegisterNormalizedMetaType was called with a not normal'
	DB	'ized type name, please call qRegisterMetaType instead.', 00H
	ORG $+1
$SG421230 DB	'D:\QT\5.12.2\MSVC2017\include\QtCore\qmetatype.h', 00H
	ORG $+3
$SG421232 DB	'qRegisterNormalizedMetaType', 00H
$SG421231 DB	'qRegisterNormalizedMetaType was called with a not normal'
	DB	'ized type name, please call qRegisterMetaType instead.', 00H
	ORG $+1
$SG396705 DB	'D:\QT\5.12.2\MSVC2017\include\QtCore\qmetatype.h', 00H
	ORG $+3
$SG396707 DB	'qRegisterNormalizedMetaType', 00H
$SG396706 DB	'qRegisterNormalizedMetaType was called with a not normal'
	DB	'ized type name, please call qRegisterMetaType instead.', 00H
	ORG $+1
$SG413113 DB	'D:\QT\5.12.2\MSVC2017\include\QtCore\qmetatype.h', 00H
	ORG $+3
$SG413115 DB	'qRegisterNormalizedMetaType', 00H
$SG413114 DB	'qRegisterNormalizedMetaType was called with a not normal'
	DB	'ized type name, please call qRegisterMetaType instead.', 00H
	ORG $+1
$SG404967 DB	'D:\QT\5.12.2\MSVC2017\include\QtCore\qmetatype.h', 00H
	ORG $+3
$SG404969 DB	'qRegisterNormalizedMetaType', 00H
$SG404968 DB	'qRegisterNormalizedMetaType was called with a not normal'
	DB	'ized type name, please call qRegisterMetaType instead.', 00H
	ORG $+1
$SG388618 DB	'D:\QT\5.12.2\MSVC2017\include\QtCore\qmetatype.h', 00H
	ORG $+3
$SG388620 DB	'qRegisterNormalizedMetaType', 00H
$SG388619 DB	'qRegisterNormalizedMetaType was called with a not normal'
	DB	'ized type name, please call qRegisterMetaType instead.', 00H
	ORG $+1
$SG429736 DB	'D:\QT\5.12.2\MSVC2017\include\QtCore\qmetatype.h', 00H
	ORG $+3
$SG429738 DB	'qRegisterNormalizedMetaType', 00H
$SG429737 DB	'qRegisterNormalizedMetaType was called with a not normal'
	DB	'ized type name, please call qRegisterMetaType instead.', 00H
	ORG $+1
$SG421584 DB	'D:\QT\5.12.2\MSVC2017\include\QtCore\qmetatype.h', 00H
	ORG $+3
$SG421586 DB	'qRegisterNormalizedMetaType', 00H
$SG421585 DB	'qRegisterNormalizedMetaType was called with a not normal'
	DB	'ized type name, please call qRegisterMetaType instead.', 00H
	ORG $+1
$SG397059 DB	'D:\QT\5.12.2\MSVC2017\include\QtCore\qmetatype.h', 00H
	ORG $+3
$SG397061 DB	'qRegisterNormalizedMetaType', 00H
$SG397060 DB	'qRegisterNormalizedMetaType was called with a not normal'
	DB	'ized type name, please call qRegisterMetaType instead.', 00H
	ORG $+1
$SG413467 DB	'D:\QT\5.12.2\MSVC2017\include\QtCore\qmetatype.h', 00H
	ORG $+3
$SG413469 DB	'qRegisterNormalizedMetaType', 00H
$SG413468 DB	'qRegisterNormalizedMetaType was called with a not normal'
	DB	'ized type name, please call qRegisterMetaType instead.', 00H
	ORG $+1
$SG405321 DB	'D:\QT\5.12.2\MSVC2017\include\QtCore\qmetatype.h', 00H
	ORG $+3
$SG405323 DB	'qRegisterNormalizedMetaType', 00H
$SG405322 DB	'qRegisterNormalizedMetaType was called with a not normal'
	DB	'ized type name, please call qRegisterMetaType instead.', 00H
	ORG $+1
$SG388946 DB	'D:\QT\5.12.2\MSVC2017\include\QtCore\qmetatype.h', 00H
	ORG $+3
$SG388948 DB	'qRegisterNormalizedMetaType', 00H
$SG388947 DB	'qRegisterNormalizedMetaType was called with a not normal'
	DB	'ized type name, please call qRegisterMetaType instead.', 00H
	ORG $+1
$SG380862 DB	'D:\QT\5.12.2\MSVC2017\include\QtCore\qmetatype.h', 00H
	ORG $+3
$SG380864 DB	'qRegisterNormalizedMetaType', 00H
$SG380863 DB	'qRegisterNormalizedMetaType was called with a not normal'
	DB	'ized type name, please call qRegisterMetaType instead.', 00H
	ORG $+1
$SG430089 DB	'D:\QT\5.12.2\MSVC2017\include\QtCore\qmetatype.h', 00H
	ORG $+3
$SG430091 DB	'qRegisterNormalizedMetaType', 00H
$SG430090 DB	'qRegisterNormalizedMetaType was called with a not normal'
	DB	'ized type name, please call qRegisterMetaType instead.', 00H
	ORG $+1
$SG421938 DB	'D:\QT\5.12.2\MSVC2017\include\QtCore\qmetatype.h', 00H
	ORG $+3
$SG421940 DB	'qRegisterNormalizedMetaType', 00H
$SG421939 DB	'qRegisterNormalizedMetaType was called with a not normal'
	DB	'ized type name, please call qRegisterMetaType instead.', 00H
	ORG $+1
$SG397413 DB	'D:\QT\5.12.2\MSVC2017\include\QtCore\qmetatype.h', 00H
	ORG $+3
$SG397415 DB	'qRegisterNormalizedMetaType', 00H
$SG397414 DB	'qRegisterNormalizedMetaType was called with a not normal'
	DB	'ized type name, please call qRegisterMetaType instead.', 00H
	ORG $+1
$SG413821 DB	'D:\QT\5.12.2\MSVC2017\include\QtCore\qmetatype.h', 00H
	ORG $+3
$SG413823 DB	'qRegisterNormalizedMetaType', 00H
$SG413822 DB	'qRegisterNormalizedMetaType was called with a not normal'
	DB	'ized type name, please call qRegisterMetaType instead.', 00H
	ORG $+1
$SG389274 DB	'D:\QT\5.12.2\MSVC2017\include\QtCore\qmetatype.h', 00H
	ORG $+3
$SG389276 DB	'qRegisterNormalizedMetaType', 00H
$SG389275 DB	'qRegisterNormalizedMetaType was called with a not normal'
	DB	'ized type name, please call qRegisterMetaType instead.', 00H
	ORG $+1
$SG405675 DB	'D:\QT\5.12.2\MSVC2017\include\QtCore\qmetatype.h', 00H
	ORG $+3
$SG405677 DB	'qRegisterNormalizedMetaType', 00H
$SG405676 DB	'qRegisterNormalizedMetaType was called with a not normal'
	DB	'ized type name, please call qRegisterMetaType instead.', 00H
	ORG $+1
$SG430444 DB	'D:\QT\5.12.2\MSVC2017\include\QtCore\qmetatype.h', 00H
	ORG $+3
$SG430446 DB	'qRegisterNormalizedMetaType', 00H
$SG430445 DB	'qRegisterNormalizedMetaType was called with a not normal'
	DB	'ized type name, please call qRegisterMetaType instead.', 00H
	ORG $+1
$SG422292 DB	'D:\QT\5.12.2\MSVC2017\include\QtCore\qmetatype.h', 00H
	ORG $+3
$SG422294 DB	'qRegisterNormalizedMetaType', 00H
$SG422293 DB	'qRegisterNormalizedMetaType was called with a not normal'
	DB	'ized type name, please call qRegisterMetaType instead.', 00H
	ORG $+1
$SG397768 DB	'D:\QT\5.12.2\MSVC2017\include\QtCore\qmetatype.h', 00H
	ORG $+3
$SG397770 DB	'qRegisterNormalizedMetaType', 00H
$SG397769 DB	'qRegisterNormalizedMetaType was called with a not normal'
	DB	'ized type name, please call qRegisterMetaType instead.', 00H
	ORG $+1
$SG414175 DB	'D:\QT\5.12.2\MSVC2017\include\QtCore\qmetatype.h', 00H
	ORG $+3
$SG414177 DB	'qRegisterNormalizedMetaType', 00H
$SG414176 DB	'qRegisterNormalizedMetaType was called with a not normal'
	DB	'ized type name, please call qRegisterMetaType instead.', 00H
	ORG $+1
$SG389627 DB	'D:\QT\5.12.2\MSVC2017\include\QtCore\qmetatype.h', 00H
	ORG $+3
$SG389629 DB	'qRegisterNormalizedMetaType', 00H
$SG389628 DB	'qRegisterNormalizedMetaType was called with a not normal'
	DB	'ized type name, please call qRegisterMetaType instead.', 00H
	ORG $+1
$SG406029 DB	'D:\QT\5.12.2\MSVC2017\include\QtCore\qmetatype.h', 00H
	ORG $+3
$SG406031 DB	'qRegisterNormalizedMetaType', 00H
$SG406030 DB	'qRegisterNormalizedMetaType was called with a not normal'
	DB	'ized type name, please call qRegisterMetaType instead.', 00H
	ORG $+1
$SG430798 DB	'D:\QT\5.12.2\MSVC2017\include\QtCore\qmetatype.h', 00H
	ORG $+3
$SG430800 DB	'qRegisterNormalizedMetaType', 00H
$SG430799 DB	'qRegisterNormalizedMetaType was called with a not normal'
	DB	'ized type name, please call qRegisterMetaType instead.', 00H
	ORG $+1
$SG422645 DB	'D:\QT\5.12.2\MSVC2017\include\QtCore\qmetatype.h', 00H
	ORG $+3
$SG422647 DB	'qRegisterNormalizedMetaType', 00H
$SG422646 DB	'qRegisterNormalizedMetaType was called with a not normal'
	DB	'ized type name, please call qRegisterMetaType instead.', 00H
	ORG $+1
$SG398096 DB	'D:\QT\5.12.2\MSVC2017\include\QtCore\qmetatype.h', 00H
	ORG $+3
$SG398098 DB	'qRegisterNormalizedMetaType', 00H
$SG398097 DB	'qRegisterNormalizedMetaType was called with a not normal'
	DB	'ized type name, please call qRegisterMetaType instead.', 00H
	ORG $+1
$SG414529 DB	'D:\QT\5.12.2\MSVC2017\include\QtCore\qmetatype.h', 00H
	ORG $+3
$SG414531 DB	'qRegisterNormalizedMetaType', 00H
$SG414530 DB	'qRegisterNormalizedMetaType was called with a not normal'
	DB	'ized type name, please call qRegisterMetaType instead.', 00H
	ORG $+1
$SG389955 DB	'D:\QT\5.12.2\MSVC2017\include\QtCore\qmetatype.h', 00H
	ORG $+3
$SG389957 DB	'qRegisterNormalizedMetaType', 00H
$SG389956 DB	'qRegisterNormalizedMetaType was called with a not normal'
	DB	'ized type name, please call qRegisterMetaType instead.', 00H
	ORG $+1
$SG406383 DB	'D:\QT\5.12.2\MSVC2017\include\QtCore\qmetatype.h', 00H
	ORG $+3
$SG406385 DB	'qRegisterNormalizedMetaType', 00H
$SG406384 DB	'qRegisterNormalizedMetaType was called with a not normal'
	DB	'ized type name, please call qRegisterMetaType instead.', 00H
	ORG $+1
$SG431157 DB	'D:\QT\5.12.2\MSVC2017\include\QtCore\qmetatype.h', 00H
	ORG $+3
$SG431159 DB	'qRegisterNormalizedMetaType', 00H
$SG431158 DB	'qRegisterNormalizedMetaType was called with a not normal'
	DB	'ized type name, please call qRegisterMetaType instead.', 00H
	ORG $+1
$SG423000 DB	'D:\QT\5.12.2\MSVC2017\include\QtCore\qmetatype.h', 00H
	ORG $+3
$SG423002 DB	'qRegisterNormalizedMetaType', 00H
$SG423001 DB	'qRegisterNormalizedMetaType was called with a not normal'
	DB	'ized type name, please call qRegisterMetaType instead.', 00H
	ORG $+1
$SG398450 DB	'D:\QT\5.12.2\MSVC2017\include\QtCore\qmetatype.h', 00H
	ORG $+3
$SG398452 DB	'qRegisterNormalizedMetaType', 00H
$SG398451 DB	'qRegisterNormalizedMetaType was called with a not normal'
	DB	'ized type name, please call qRegisterMetaType instead.', 00H
	ORG $+1
$SG414883 DB	'D:\QT\5.12.2\MSVC2017\include\QtCore\qmetatype.h', 00H
	ORG $+3
$SG414885 DB	'qRegisterNormalizedMetaType', 00H
$SG414884 DB	'qRegisterNormalizedMetaType was called with a not normal'
	DB	'ized type name, please call qRegisterMetaType instead.', 00H
	ORG $+1
$SG406737 DB	'D:\QT\5.12.2\MSVC2017\include\QtCore\qmetatype.h', 00H
	ORG $+3
$SG406739 DB	'qRegisterNormalizedMetaType', 00H
$SG406738 DB	'qRegisterNormalizedMetaType was called with a not normal'
	DB	'ized type name, please call qRegisterMetaType instead.', 00H
	ORG $+1
?qt_meta_stringdata_mainscence@@3Uqt_meta_stringdata_mainscence_t@@B DD 0ffffffffH ; qt_meta_stringdata_mainscence
	DD	0aH
	DD	00H
	DD	040H
	DD	0ffffffffH
	DD	0bH
	DD	00H
	DD	03bH
	DD	0ffffffffH
	DD	00H
	DD	00H
	DD	037H
	DD	0ffffffffH
	DD	010H
	DD	00H
	DD	028H
	DB	06dH
	DB	061H
	DB	069H
	DB	06eH
	DB	073H
	DB	063H
	DB	065H
	DB	06eH
	DB	063H
	DB	065H
	DB	00H
	DB	073H
	DB	065H
	DB	06cH
	DB	065H
	DB	063H
	DB	074H
	DB	069H
	DB	074H
	DB	065H
	DB	06dH
	DB	073H
	DB	00H
	DB	00H
	DB	051H
	DB	054H
	DB	072H
	DB	065H
	DB	065H
	DB	057H
	DB	069H
	DB	064H
	DB	067H
	DB	065H
	DB	074H
	DB	049H
	DB	074H
	DB	065H
	DB	06dH
	DB	02aH
	DB	00H
	ORG $+3
$SG431511 DB	'D:\QT\5.12.2\MSVC2017\include\QtCore\qmetatype.h', 00H
	ORG $+3
?qt_meta_data_mainscence@@3QBIB DD 08H			; qt_meta_data_mainscence
	DD	00H
	DD	00H
	DD	00H
	DD	01H
	DD	0eH
	DD	00H
	DD	00H
	DD	00H
	DD	00H
	DD	00H
	DD	00H
	DD	00H
	DD	00H
	DD	01H
	DD	02H
	DD	013H
	DD	02H
	DD	0aH
	DD	02bH
	DD	080000003H
	DD	02H
	DD	02H
	DD	02H
	DD	00H
$SG431513 DB	'qRegisterNormalizedMetaType', 00H
$SG431512 DB	'qRegisterNormalizedMetaType was called with a not normal'
	DB	'ized type name, please call qRegisterMetaType instead.', 00H
	ORG $+1
$SG423354 DB	'D:\QT\5.12.2\MSVC2017\include\QtCore\qmetatype.h', 00H
	ORG $+3
$SG423356 DB	'qRegisterNormalizedMetaType', 00H
$SG423355 DB	'qRegisterNormalizedMetaType was called with a not normal'
	DB	'ized type name, please call qRegisterMetaType instead.', 00H
	ORG $+1
$SG398817 DB	'D:\QT\5.12.2\MSVC2017\include\QtCore\qmetatype.h', 00H
	ORG $+3
$SG398819 DB	'qRegisterNormalizedMetaType', 00H
$SG398818 DB	'qRegisterNormalizedMetaType was called with a not normal'
	DB	'ized type name, please call qRegisterMetaType instead.', 00H
	ORG $+1
$SG415237 DB	'D:\QT\5.12.2\MSVC2017\include\QtCore\qmetatype.h', 00H
	ORG $+3
$SG415239 DB	'qRegisterNormalizedMetaType', 00H
$SG415238 DB	'qRegisterNormalizedMetaType was called with a not normal'
	DB	'ized type name, please call qRegisterMetaType instead.', 00H
	ORG $+1
$SG407091 DB	'D:\QT\5.12.2\MSVC2017\include\QtCore\qmetatype.h', 00H
	ORG $+3
$SG407093 DB	'qRegisterNormalizedMetaType', 00H
$SG407092 DB	'qRegisterNormalizedMetaType was called with a not normal'
	DB	'ized type name, please call qRegisterMetaType instead.', 00H
	ORG $+1
$SG431865 DB	'D:\QT\5.12.2\MSVC2017\include\QtCore\qmetatype.h', 00H
	ORG $+3
$SG431867 DB	'qRegisterNormalizedMetaType', 00H
$SG431866 DB	'qRegisterNormalizedMetaType was called with a not normal'
	DB	'ized type name, please call qRegisterMetaType instead.', 00H
	ORG $+1
$SG423708 DB	'D:\QT\5.12.2\MSVC2017\include\QtCore\qmetatype.h', 00H
	ORG $+3
$SG423710 DB	'qRegisterNormalizedMetaType', 00H
$SG423709 DB	'qRegisterNormalizedMetaType was called with a not normal'
	DB	'ized type name, please call qRegisterMetaType instead.', 00H
	ORG $+1
$SG415591 DB	'D:\QT\5.12.2\MSVC2017\include\QtCore\qmetatype.h', 00H
	ORG $+3
$SG415593 DB	'qRegisterNormalizedMetaType', 00H
$SG415592 DB	'qRegisterNormalizedMetaType was called with a not normal'
	DB	'ized type name, please call qRegisterMetaType instead.', 00H
	ORG $+1
$SG399211 DB	'D:\QT\5.12.2\MSVC2017\include\QtCore\qmetatype.h', 00H
	ORG $+3
$SG399213 DB	'qRegisterNormalizedMetaType', 00H
$SG399212 DB	'qRegisterNormalizedMetaType was called with a not normal'
	DB	'ized type name, please call qRegisterMetaType instead.', 00H
	ORG $+1
$SG407445 DB	'D:\QT\5.12.2\MSVC2017\include\QtCore\qmetatype.h', 00H
	ORG $+3
$SG407447 DB	'qRegisterNormalizedMetaType', 00H
$SG407446 DB	'qRegisterNormalizedMetaType was called with a not normal'
	DB	'ized type name, please call qRegisterMetaType instead.', 00H
	ORG $+1
$SG391171 DB	'D:\QT\5.12.2\MSVC2017\include\QtCore\qmetatype.h', 00H
	ORG $+3
$SG391173 DB	'qRegisterNormalizedMetaType', 00H
$SG391172 DB	'qRegisterNormalizedMetaType was called with a not normal'
	DB	'ized type name, please call qRegisterMetaType instead.', 00H
	ORG $+1
$SG424062 DB	'D:\QT\5.12.2\MSVC2017\include\QtCore\qmetatype.h', 00H
	ORG $+3
$SG424064 DB	'qRegisterNormalizedMetaType', 00H
$SG424063 DB	'qRegisterNormalizedMetaType was called with a not normal'
	DB	'ized type name, please call qRegisterMetaType instead.', 00H
	ORG $+1
$SG415945 DB	'D:\QT\5.12.2\MSVC2017\include\QtCore\qmetatype.h', 00H
	ORG $+3
$SG415947 DB	'qRegisterNormalizedMetaType', 00H
$SG415946 DB	'qRegisterNormalizedMetaType was called with a not normal'
	DB	'ized type name, please call qRegisterMetaType instead.', 00H
	ORG $+1
$SG399593 DB	'D:\QT\5.12.2\MSVC2017\include\QtCore\qmetatype.h', 00H
	ORG $+3
$SG399595 DB	'qRegisterNormalizedMetaType', 00H
$SG399594 DB	'qRegisterNormalizedMetaType was called with a not normal'
	DB	'ized type name, please call qRegisterMetaType instead.', 00H
	ORG $+1
$SG407799 DB	'D:\QT\5.12.2\MSVC2017\include\QtCore\qmetatype.h', 00H
	ORG $+3
$SG407801 DB	'qRegisterNormalizedMetaType', 00H
$SG407800 DB	'qRegisterNormalizedMetaType was called with a not normal'
	DB	'ized type name, please call qRegisterMetaType instead.', 00H
	ORG $+1
$SG391525 DB	'D:\QT\5.12.2\MSVC2017\include\QtCore\qmetatype.h', 00H
	ORG $+3
$SG391527 DB	'qRegisterNormalizedMetaType', 00H
$SG391526 DB	'qRegisterNormalizedMetaType was called with a not normal'
	DB	'ized type name, please call qRegisterMetaType instead.', 00H
	ORG $+1
$SG432528 DB	'invalid argument', 00H
	ORG $+3
$SG432529 DB	'%s', 00H
	ORG $+1
$SG432530 DB	'C:\Program Files (x86)\Microsoft Visual Studio\2019\Prof'
	DB	'essional\VC\Tools\MSVC\14.26.28801\include\xmemory', 00H
	ORG $+1
$SG424427 DB	'D:\QT\5.12.2\MSVC2017\include\QtCore\qmetatype.h', 00H
	ORG $+3
$SG432531 DB	'C', 00H, ':', 00H, '\', 00H, 'P', 00H, 'r', 00H, 'o', 00H
	DB	'g', 00H, 'r', 00H, 'a', 00H, 'm', 00H, ' ', 00H, 'F', 00H, 'i'
	DB	00H, 'l', 00H, 'e', 00H, 's', 00H, ' ', 00H, '(', 00H, 'x', 00H
	DB	'8', 00H, '6', 00H, ')', 00H, '\', 00H, 'M', 00H, 'i', 00H, 'c'
	DB	00H, 'r', 00H, 'o', 00H, 's', 00H, 'o', 00H, 'f', 00H, 't', 00H
	DB	' ', 00H, 'V', 00H, 'i', 00H, 's', 00H, 'u', 00H, 'a', 00H, 'l'
	DB	00H, ' ', 00H, 'S', 00H, 't', 00H, 'u', 00H, 'd', 00H, 'i', 00H
	DB	'o', 00H, '\', 00H, '2', 00H, '0', 00H, '1', 00H, '9', 00H, '\'
	DB	00H, 'P', 00H, 'r', 00H, 'o', 00H, 'f', 00H, 'e', 00H, 's', 00H
	DB	's', 00H, 'i', 00H, 'o', 00H, 'n', 00H, 'a', 00H, 'l', 00H, '\'
	DB	00H, 'V', 00H, 'C', 00H, '\', 00H, 'T', 00H, 'o', 00H, 'o', 00H
	DB	'l', 00H, 's', 00H, '\', 00H, 'M', 00H, 'S', 00H, 'V', 00H, 'C'
	DB	00H, '\', 00H, '1', 00H, '4', 00H, '.', 00H, '2', 00H, '6', 00H
	DB	'.', 00H, '2', 00H, '8', 00H, '8', 00H, '0', 00H, '1', 00H, '\'
	DB	00H, 'i', 00H, 'n', 00H, 'c', 00H, 'l', 00H, 'u', 00H, 'd', 00H
	DB	'e', 00H, '\', 00H, 'x', 00H, 'm', 00H, 'e', 00H, 'm', 00H, 'o'
	DB	00H, 'r', 00H, 'y', 00H, 00H, 00H
	ORG $+2
$SG432532 DB	's', 00H, 't', 00H, 'd', 00H, ':', 00H, ':', 00H, '_', 00H
	DB	'A', 00H, 'l', 00H, 'l', 00H, 'o', 00H, 'c', 00H, 'a', 00H, 't'
	DB	00H, 'e', 00H, '_', 00H, 'm', 00H, 'a', 00H, 'n', 00H, 'u', 00H
	DB	'a', 00H, 'l', 00H, 'l', 00H, 'y', 00H, '_', 00H, 'v', 00H, 'e'
	DB	00H, 'c', 00H, 't', 00H, 'o', 00H, 'r', 00H, '_', 00H, 'a', 00H
	DB	'l', 00H, 'i', 00H, 'g', 00H, 'n', 00H, 'e', 00H, 'd', 00H, 00H
	DB	00H
	ORG $+2
$SG432533 DB	'"', 00H, 'i', 00H, 'n', 00H, 'v', 00H, 'a', 00H, 'l', 00H
	DB	'i', 00H, 'd', 00H, ' ', 00H, 'a', 00H, 'r', 00H, 'g', 00H, 'u'
	DB	00H, 'm', 00H, 'e', 00H, 'n', 00H, 't', 00H, '"', 00H, 00H, 00H
	ORG $+2
$SG424428 DB	'qRegisterNormalizedMetaType was called with a not normal'
	DB	'ized type name, please call qRegisterMetaType instead.', 00H
	ORG $+1
$SG424429 DB	'qRegisterNormalizedMetaType', 00H
$SG416299 DB	'D:\QT\5.12.2\MSVC2017\include\QtCore\qmetatype.h', 00H
	ORG $+3
$SG416300 DB	'qRegisterNormalizedMetaType was called with a not normal'
	DB	'ized type name, please call qRegisterMetaType instead.', 00H
	ORG $+1
$SG416301 DB	'qRegisterNormalizedMetaType', 00H
$SG408153 DB	'D:\QT\5.12.2\MSVC2017\include\QtCore\qmetatype.h', 00H
	ORG $+3
$SG408154 DB	'qRegisterNormalizedMetaType was called with a not normal'
	DB	'ized type name, please call qRegisterMetaType instead.', 00H
	ORG $+1
$SG408155 DB	'qRegisterNormalizedMetaType', 00H
$SG399975 DB	'D:\QT\5.12.2\MSVC2017\include\QtCore\qmetatype.h', 00H
	ORG $+3
$SG399976 DB	'qRegisterNormalizedMetaType was called with a not normal'
	DB	'ized type name, please call qRegisterMetaType instead.', 00H
	ORG $+1
$SG399977 DB	'qRegisterNormalizedMetaType', 00H
$SG391878 DB	'D:\QT\5.12.2\MSVC2017\include\QtCore\qmetatype.h', 00H
	ORG $+3
$SG391879 DB	'qRegisterNormalizedMetaType was called with a not normal'
	DB	'ized type name, please call qRegisterMetaType instead.', 00H
	ORG $+1
$SG391880 DB	'qRegisterNormalizedMetaType', 00H
$SG424781 DB	'D:\QT\5.12.2\MSVC2017\include\QtCore\qmetatype.h', 00H
	ORG $+3
$SG424782 DB	'qRegisterNormalizedMetaType was called with a not normal'
	DB	'ized type name, please call qRegisterMetaType instead.', 00H
	ORG $+1
$SG424783 DB	'qRegisterNormalizedMetaType', 00H
$SG416654 DB	'D:\QT\5.12.2\MSVC2017\include\QtCore\qmetatype.h', 00H
	ORG $+3
$SG416655 DB	'qRegisterNormalizedMetaType was called with a not normal'
	DB	'ized type name, please call qRegisterMetaType instead.', 00H
	ORG $+1
$SG416656 DB	'qRegisterNormalizedMetaType', 00H
$SG408507 DB	'D:\QT\5.12.2\MSVC2017\include\QtCore\qmetatype.h', 00H
	ORG $+3
$SG408508 DB	'qRegisterNormalizedMetaType was called with a not normal'
	DB	'ized type name, please call qRegisterMetaType instead.', 00H
	ORG $+1
$SG408509 DB	'qRegisterNormalizedMetaType', 00H
$SG400357 DB	'D:\QT\5.12.2\MSVC2017\include\QtCore\qmetatype.h', 00H
	ORG $+3
$SG400358 DB	'qRegisterNormalizedMetaType was called with a not normal'
	DB	'ized type name, please call qRegisterMetaType instead.', 00H
	ORG $+1
$SG400359 DB	'qRegisterNormalizedMetaType', 00H
$SG392231 DB	'D:\QT\5.12.2\MSVC2017\include\QtCore\qmetatype.h', 00H
	ORG $+3
$SG392232 DB	'qRegisterNormalizedMetaType was called with a not normal'
	DB	'ized type name, please call qRegisterMetaType instead.', 00H
	ORG $+1
$SG392233 DB	'qRegisterNormalizedMetaType', 00H
$SG425135 DB	'D:\QT\5.12.2\MSVC2017\include\QtCore\qmetatype.h', 00H
	ORG $+3
$SG425136 DB	'qRegisterNormalizedMetaType was called with a not normal'
	DB	'ized type name, please call qRegisterMetaType instead.', 00H
	ORG $+1
$SG425137 DB	'qRegisterNormalizedMetaType', 00H
$SG417008 DB	'D:\QT\5.12.2\MSVC2017\include\QtCore\qmetatype.h', 00H
	ORG $+3
$SG417009 DB	'qRegisterNormalizedMetaType was called with a not normal'
	DB	'ized type name, please call qRegisterMetaType instead.', 00H
	ORG $+1
$SG417010 DB	'qRegisterNormalizedMetaType', 00H
$SG408861 DB	'D:\QT\5.12.2\MSVC2017\include\QtCore\qmetatype.h', 00H
	ORG $+3
$SG408862 DB	'qRegisterNormalizedMetaType was called with a not normal'
	DB	'ized type name, please call qRegisterMetaType instead.', 00H
	ORG $+1
$SG408863 DB	'qRegisterNormalizedMetaType', 00H
$SG400739 DB	'D:\QT\5.12.2\MSVC2017\include\QtCore\qmetatype.h', 00H
	ORG $+3
$SG400740 DB	'qRegisterNormalizedMetaType was called with a not normal'
	DB	'ized type name, please call qRegisterMetaType instead.', 00H
	ORG $+1
$SG400741 DB	'qRegisterNormalizedMetaType', 00H
$SG392559 DB	'D:\QT\5.12.2\MSVC2017\include\QtCore\qmetatype.h', 00H
	ORG $+3
$SG392560 DB	'qRegisterNormalizedMetaType was called with a not normal'
	DB	'ized type name, please call qRegisterMetaType instead.', 00H
	ORG $+1
$SG392561 DB	'qRegisterNormalizedMetaType', 00H
$SG425489 DB	'D:\QT\5.12.2\MSVC2017\include\QtCore\qmetatype.h', 00H
	ORG $+3
$SG425490 DB	'qRegisterNormalizedMetaType was called with a not normal'
	DB	'ized type name, please call qRegisterMetaType instead.', 00H
	ORG $+1
$SG425491 DB	'qRegisterNormalizedMetaType', 00H
$SG417363 DB	'D:\QT\5.12.2\MSVC2017\include\QtCore\qmetatype.h', 00H
	ORG $+3
$SG417364 DB	'qRegisterNormalizedMetaType was called with a not normal'
	DB	'ized type name, please call qRegisterMetaType instead.', 00H
	ORG $+1
$SG417365 DB	'qRegisterNormalizedMetaType', 00H
$SG409219 DB	'D:\QT\5.12.2\MSVC2017\include\QtCore\qmetatype.h', 00H
	ORG $+3
$SG409220 DB	'qRegisterNormalizedMetaType was called with a not normal'
	DB	'ized type name, please call qRegisterMetaType instead.', 00H
	ORG $+1
$SG409221 DB	'qRegisterNormalizedMetaType', 00H
$SG401121 DB	'D:\QT\5.12.2\MSVC2017\include\QtCore\qmetatype.h', 00H
	ORG $+3
$SG401122 DB	'qRegisterNormalizedMetaType was called with a not normal'
	DB	'ized type name, please call qRegisterMetaType instead.', 00H
	ORG $+1
$SG401123 DB	'qRegisterNormalizedMetaType', 00H
$SG384788 DB	'D:\QT\5.12.2\MSVC2017\include\QtCore\qvector.h', 00H
	ORG $+1
$SG384789 DB	'asize >= 0 && asize <= aalloc', 00H
	ORG $+2
$SG384797 DB	'D:\QT\5.12.2\MSVC2017\include\QtCore\qvector.h', 00H
	ORG $+1
$SG384800 DB	'!x->ref.isStatic()', 00H
	ORG $+1
$SG384798 DB	'x->ref.isSharable() || options.testFlag(QArrayData::Unsh'
	DB	'arable)', 00H
$SG384799 DB	'D:\QT\5.12.2\MSVC2017\include\QtCore\qvector.h', 00H
	ORG $+1
$SG384813 DB	'D:\QT\5.12.2\MSVC2017\include\QtCore\qvector.h', 00H
	ORG $+1
$SG384814 DB	'int(d->alloc) == aalloc', 00H
$SG384815 DB	'D:\QT\5.12.2\MSVC2017\include\QtCore\qvector.h', 00H
	ORG $+1
$SG384816 DB	'isDetached()', 00H
	ORG $+3
$SG384817 DB	'D:\QT\5.12.2\MSVC2017\include\QtCore\qvector.h', 00H
	ORG $+1
$SG384818 DB	'x == d', 00H
	ORG $+1
$SG384826 DB	'D:\QT\5.12.2\MSVC2017\include\QtCore\qvector.h', 00H
	ORG $+1
$SG384827 DB	'd->data()', 00H
	ORG $+2
$SG384828 DB	'D:\QT\5.12.2\MSVC2017\include\QtCore\qvector.h', 00H
	ORG $+1
$SG384829 DB	'uint(d->size) <= d->alloc', 00H
	ORG $+2
$SG384830 DB	'D:\QT\5.12.2\MSVC2017\include\QtCore\qvector.h', 00H
	ORG $+1
$SG384831 DB	'd != Data::unsharableEmpty()', 00H
	ORG $+3
$SG384832 DB	'D:\QT\5.12.2\MSVC2017\include\QtCore\qvector.h', 00H
	ORG $+1
$SG384833 DB	'aalloc ? d != Data::sharedNull() : d == Data::sharedNull'
	DB	'()', 00H
	ORG $+1
$SG384834 DB	'D:\QT\5.12.2\MSVC2017\include\QtCore\qvector.h', 00H
	ORG $+1
$SG384835 DB	'd->alloc >= uint(aalloc)', 00H
	ORG $+3
$SG384836 DB	'D:\QT\5.12.2\MSVC2017\include\QtCore\qvector.h', 00H
	ORG $+1
$SG384837 DB	'd->size == asize', 00H
	ORG $+3
$SG393035 DB	'D:\QT\5.12.2\MSVC2017\include\QtCore\qmetatype.h', 00H
	ORG $+3
$SG393036 DB	'qRegisterNormalizedMetaType was called with a not normal'
	DB	'ized type name, please call qRegisterMetaType instead.', 00H
	ORG $+1
$SG393037 DB	'qRegisterNormalizedMetaType', 00H
$SG425843 DB	'D:\QT\5.12.2\MSVC2017\include\QtCore\qmetatype.h', 00H
	ORG $+3
$SG425844 DB	'qRegisterNormalizedMetaType was called with a not normal'
	DB	'ized type name, please call qRegisterMetaType instead.', 00H
	ORG $+1
$SG425845 DB	'qRegisterNormalizedMetaType', 00H
$SG417717 DB	'D:\QT\5.12.2\MSVC2017\include\QtCore\qmetatype.h', 00H
	ORG $+3
$SG417718 DB	'qRegisterNormalizedMetaType was called with a not normal'
	DB	'ized type name, please call qRegisterMetaType instead.', 00H
	ORG $+1
$SG417719 DB	'qRegisterNormalizedMetaType', 00H
$SG409573 DB	'D:\QT\5.12.2\MSVC2017\include\QtCore\qmetatype.h', 00H
	ORG $+3
$SG409574 DB	'qRegisterNormalizedMetaType was called with a not normal'
	DB	'ized type name, please call qRegisterMetaType instead.', 00H
	ORG $+1
$SG409575 DB	'qRegisterNormalizedMetaType', 00H
CONST	ENDS
PUBLIC	??C?$QScopedPointer@VQObjectData@@U?$QScopedPointerDeleter@VQObjectData@@@@@@QBEPAVQObjectData@@XZ ; QScopedPointer<QObjectData,QScopedPointerDeleter<QObjectData> >::operator->
PUBLIC	?metaObject@mainscence@@UBEPBUQMetaObject@@XZ	; mainscence::metaObject
PUBLIC	?qt_metacast@mainscence@@UAEPAXPBD@Z		; mainscence::qt_metacast
PUBLIC	?qt_metacall@mainscence@@UAEHW4Call@QMetaObject@@HPAPAX@Z ; mainscence::qt_metacall
PUBLIC	?qt_static_metacall@mainscence@@CAXPAVQObject@@W4Call@QMetaObject@@HPAPAX@Z ; mainscence::qt_static_metacall
PUBLIC	?staticMetaObject@mainscence@@2UQMetaObject@@B	; mainscence::staticMetaObject
EXTRN	_strcmp:PROC
EXTRN	__imp_?dynamicMetaObject@QObjectData@@QBEPAUQMetaObject@@XZ:PROC
EXTRN	__imp_?qt_metacast@QMainWindow@@UAEPAXPBD@Z:PROC
EXTRN	__imp_?qt_metacall@QMainWindow@@UAEHW4Call@QMetaObject@@HPAPAX@Z:PROC
EXTRN	?selectitems@mainscence@@QAEXPAVQTreeWidgetItem@@H@Z:PROC ; mainscence::selectitems
EXTRN	__imp_?staticMetaObject@QMainWindow@@2UQMetaObject@@B:BYTE
_BSS	SEGMENT
?staticMetaObject@mainscence@@2UQMetaObject@@B DB 018H DUP (?) ; mainscence::staticMetaObject
_BSS	ENDS
CRT$XCU	SEGMENT
??staticMetaObject$initializer$@mainscence@@2P6AXXZA@@3P6AXXZA DD FLAT:??__E?staticMetaObject@mainscence@@2UQMetaObject@@B@@YAXXZ ; ??staticMetaObject$initializer$@mainscence@@2P6AXXZA@@3P6AXXZA
CRT$XCU	ENDS
; Function compile flags: /Odtp
;	COMDAT ??__E?staticMetaObject@mainscence@@2UQMetaObject@@B@@YAXXZ
text$di	SEGMENT
??__E?staticMetaObject@mainscence@@2UQMetaObject@@B@@YAXXZ PROC ; `dynamic initializer for 'mainscence::staticMetaObject'', COMDAT
; File D:\liuyu\task\Auxiliary_maintenance\Win32\Debug\moc\moc_mainscence.cpp
; Line 85
	push	ebp
	mov	ebp, esp
; Line 79
	mov	eax, DWORD PTR __imp_?staticMetaObject@QMainWindow@@2UQMetaObject@@B
	mov	DWORD PTR ?staticMetaObject@mainscence@@2UQMetaObject@@B, eax
; Line 80
	mov	DWORD PTR ?staticMetaObject@mainscence@@2UQMetaObject@@B+4, OFFSET ?qt_meta_stringdata_mainscence@@3Uqt_meta_stringdata_mainscence_t@@B
; Line 81
	mov	DWORD PTR ?staticMetaObject@mainscence@@2UQMetaObject@@B+8, OFFSET ?qt_meta_data_mainscence@@3QBIB
; Line 82
	mov	DWORD PTR ?staticMetaObject@mainscence@@2UQMetaObject@@B+12, OFFSET ?qt_static_metacall@mainscence@@CAXPAVQObject@@W4Call@QMetaObject@@HPAPAX@Z ; mainscence::qt_static_metacall
; Line 83
	mov	DWORD PTR ?staticMetaObject@mainscence@@2UQMetaObject@@B+16, 0
; Line 84
	mov	DWORD PTR ?staticMetaObject@mainscence@@2UQMetaObject@@B+20, 0
	pop	ebp
	ret	0
??__E?staticMetaObject@mainscence@@2UQMetaObject@@B@@YAXXZ ENDP ; `dynamic initializer for 'mainscence::staticMetaObject''
text$di	ENDS
; Function compile flags: /Odtp
_TEXT	SEGMENT
__t$1 = -8						; size = 4
tv69 = -4						; size = 4
__o$ = 8						; size = 4
__c$ = 12						; size = 4
__id$ = 16						; size = 4
__a$ = 20						; size = 4
?qt_static_metacall@mainscence@@CAXPAVQObject@@W4Call@QMetaObject@@HPAPAX@Z PROC ; mainscence::qt_static_metacall
; File D:\liuyu\task\Auxiliary_maintenance\Win32\Debug\moc\moc_mainscence.cpp
; Line 67
	push	ebp
	mov	ebp, esp
	sub	esp, 8
; Line 68
	cmp	DWORD PTR __c$[ebp], 0
	jne	SHORT $LN1@qt_static_
; Line 69
	mov	eax, DWORD PTR __o$[ebp]
	mov	DWORD PTR __t$1[ebp], eax
; Line 71
	mov	ecx, DWORD PTR __id$[ebp]
	mov	DWORD PTR tv69[ebp], ecx
	cmp	DWORD PTR tv69[ebp], 0
	je	SHORT $LN5@qt_static_
	jmp	SHORT $LN1@qt_static_
$LN5@qt_static_:
; Line 72
	mov	edx, 4
	shl	edx, 1
	mov	eax, DWORD PTR __a$[ebp]
	mov	ecx, DWORD PTR [eax+edx]
	mov	edx, DWORD PTR [ecx]
	push	edx
	mov	eax, 4
	shl	eax, 0
	mov	ecx, DWORD PTR __a$[ebp]
	mov	edx, DWORD PTR [ecx+eax]
	mov	eax, DWORD PTR [edx]
	push	eax
	mov	ecx, DWORD PTR __t$1[ebp]
	call	?selectitems@mainscence@@QAEXPAVQTreeWidgetItem@@H@Z ; mainscence::selectitems
$LN1@qt_static_:
; Line 76
	mov	esp, ebp
	pop	ebp
	ret	0
?qt_static_metacall@mainscence@@CAXPAVQObject@@W4Call@QMetaObject@@HPAPAX@Z ENDP ; mainscence::qt_static_metacall
_TEXT	ENDS
; Function compile flags: /Odtp
_TEXT	SEGMENT
_this$ = -4						; size = 4
__c$ = 8						; size = 4
__id$ = 12						; size = 4
__a$ = 16						; size = 4
?qt_metacall@mainscence@@UAEHW4Call@QMetaObject@@HPAPAX@Z PROC ; mainscence::qt_metacall
; _this$ = ecx
; File D:\liuyu\task\Auxiliary_maintenance\Win32\Debug\moc\moc_mainscence.cpp
; Line 102
	push	ebp
	mov	ebp, esp
	push	ecx
	mov	DWORD PTR _this$[ebp], ecx
; Line 103
	mov	eax, DWORD PTR __a$[ebp]
	push	eax
	mov	ecx, DWORD PTR __id$[ebp]
	push	ecx
	mov	edx, DWORD PTR __c$[ebp]
	push	edx
	mov	ecx, DWORD PTR _this$[ebp]
	call	DWORD PTR __imp_?qt_metacall@QMainWindow@@UAEHW4Call@QMetaObject@@HPAPAX@Z
	mov	DWORD PTR __id$[ebp], eax
; Line 104
	cmp	DWORD PTR __id$[ebp], 0
	jge	SHORT $LN2@qt_metacal
; Line 105
	mov	eax, DWORD PTR __id$[ebp]
	jmp	SHORT $LN1@qt_metacal
$LN2@qt_metacal:
; Line 106
	cmp	DWORD PTR __c$[ebp], 0
	jne	SHORT $LN3@qt_metacal
; Line 107
	cmp	DWORD PTR __id$[ebp], 1
	jge	SHORT $LN5@qt_metacal
; Line 108
	mov	eax, DWORD PTR __a$[ebp]
	push	eax
	mov	ecx, DWORD PTR __id$[ebp]
	push	ecx
	mov	edx, DWORD PTR __c$[ebp]
	push	edx
	mov	eax, DWORD PTR _this$[ebp]
	push	eax
	call	?qt_static_metacall@mainscence@@CAXPAVQObject@@W4Call@QMetaObject@@HPAPAX@Z ; mainscence::qt_static_metacall
	add	esp, 16					; 00000010H
$LN5@qt_metacal:
; Line 109
	mov	ecx, DWORD PTR __id$[ebp]
	sub	ecx, 1
	mov	DWORD PTR __id$[ebp], ecx
	jmp	SHORT $LN4@qt_metacal
$LN3@qt_metacal:
; Line 110
	cmp	DWORD PTR __c$[ebp], 12			; 0000000cH
	jne	SHORT $LN4@qt_metacal
; Line 111
	cmp	DWORD PTR __id$[ebp], 1
	jge	SHORT $LN7@qt_metacal
; Line 112
	mov	edx, 4
	imul	eax, edx, 0
	mov	ecx, DWORD PTR __a$[ebp]
	mov	edx, DWORD PTR [ecx+eax]
	mov	DWORD PTR [edx], -1
$LN7@qt_metacal:
; Line 113
	mov	eax, DWORD PTR __id$[ebp]
	sub	eax, 1
	mov	DWORD PTR __id$[ebp], eax
$LN4@qt_metacal:
; Line 115
	mov	eax, DWORD PTR __id$[ebp]
$LN1@qt_metacal:
; Line 116
	mov	esp, ebp
	pop	ebp
	ret	12					; 0000000cH
?qt_metacall@mainscence@@UAEHW4Call@QMetaObject@@HPAPAX@Z ENDP ; mainscence::qt_metacall
_TEXT	ENDS
; Function compile flags: /Odtp
_TEXT	SEGMENT
_this$ = -4						; size = 4
__clname$ = 8						; size = 4
?qt_metacast@mainscence@@UAEPAXPBD@Z PROC		; mainscence::qt_metacast
; _this$ = ecx
; File D:\liuyu\task\Auxiliary_maintenance\Win32\Debug\moc\moc_mainscence.cpp
; Line 94
	push	ebp
	mov	ebp, esp
	push	ecx
	mov	DWORD PTR _this$[ebp], ecx
; Line 95
	cmp	DWORD PTR __clname$[ebp], 0
	jne	SHORT $LN2@qt_metacas
	xor	eax, eax
	jmp	SHORT $LN1@qt_metacas
$LN2@qt_metacas:
; Line 96
	push	OFFSET ?qt_meta_stringdata_mainscence@@3Uqt_meta_stringdata_mainscence_t@@B+64
	mov	eax, DWORD PTR __clname$[ebp]
	push	eax
	call	_strcmp
	add	esp, 8
	test	eax, eax
	jne	SHORT $LN3@qt_metacas
; Line 97
	mov	eax, DWORD PTR _this$[ebp]
	jmp	SHORT $LN1@qt_metacas
$LN3@qt_metacas:
; Line 98
	mov	ecx, DWORD PTR __clname$[ebp]
	push	ecx
	mov	ecx, DWORD PTR _this$[ebp]
	call	DWORD PTR __imp_?qt_metacast@QMainWindow@@UAEPAXPBD@Z
$LN1@qt_metacas:
; Line 99
	mov	esp, ebp
	pop	ebp
	ret	4
?qt_metacast@mainscence@@UAEPAXPBD@Z ENDP		; mainscence::qt_metacast
_TEXT	ENDS
; Function compile flags: /Odtp
_TEXT	SEGMENT
tv82 = -8						; size = 4
_this$ = -4						; size = 4
?metaObject@mainscence@@UBEPBUQMetaObject@@XZ PROC	; mainscence::metaObject
; _this$ = ecx
; File D:\liuyu\task\Auxiliary_maintenance\Win32\Debug\moc\moc_mainscence.cpp
; Line 89
	push	ebp
	mov	ebp, esp
	sub	esp, 8
	mov	DWORD PTR _this$[ebp], ecx
; Line 90
	mov	ecx, DWORD PTR _this$[ebp]
	add	ecx, 4
	call	??C?$QScopedPointer@VQObjectData@@U?$QScopedPointerDeleter@VQObjectData@@@@@@QBEPAVQObjectData@@XZ ; QScopedPointer<QObjectData,QScopedPointerDeleter<QObjectData> >::operator->
	cmp	DWORD PTR [eax+24], 0
	je	SHORT $LN3@metaObject
	mov	ecx, DWORD PTR _this$[ebp]
	add	ecx, 4
	call	??C?$QScopedPointer@VQObjectData@@U?$QScopedPointerDeleter@VQObjectData@@@@@@QBEPAVQObjectData@@XZ ; QScopedPointer<QObjectData,QScopedPointerDeleter<QObjectData> >::operator->
	mov	ecx, eax
	call	DWORD PTR __imp_?dynamicMetaObject@QObjectData@@QBEPAUQMetaObject@@XZ
	mov	DWORD PTR tv82[ebp], eax
	jmp	SHORT $LN4@metaObject
$LN3@metaObject:
	mov	DWORD PTR tv82[ebp], OFFSET ?staticMetaObject@mainscence@@2UQMetaObject@@B ; mainscence::staticMetaObject
$LN4@metaObject:
	mov	eax, DWORD PTR tv82[ebp]
; Line 91
	mov	esp, ebp
	pop	ebp
	ret	0
?metaObject@mainscence@@UBEPBUQMetaObject@@XZ ENDP	; mainscence::metaObject
_TEXT	ENDS
; Function compile flags: /Odtp
;	COMDAT ??C?$QScopedPointer@VQObjectData@@U?$QScopedPointerDeleter@VQObjectData@@@@@@QBEPAVQObjectData@@XZ
_TEXT	SEGMENT
_this$ = -4						; size = 4
??C?$QScopedPointer@VQObjectData@@U?$QScopedPointerDeleter@VQObjectData@@@@@@QBEPAVQObjectData@@XZ PROC ; QScopedPointer<QObjectData,QScopedPointerDeleter<QObjectData> >::operator->, COMDAT
; _this$ = ecx
; File D:\QT\5.12.2\MSVC2017\include\QtCore\qscopedpointer.h
; Line 117
	push	ebp
	mov	ebp, esp
	push	ecx
	mov	DWORD PTR _this$[ebp], ecx
; Line 118
	mov	eax, DWORD PTR _this$[ebp]
	mov	eax, DWORD PTR [eax]
; Line 119
	mov	esp, ebp
	pop	ebp
	ret	0
??C?$QScopedPointer@VQObjectData@@U?$QScopedPointerDeleter@VQObjectData@@@@@@QBEPAVQObjectData@@XZ ENDP ; QScopedPointer<QObjectData,QScopedPointerDeleter<QObjectData> >::operator->
_TEXT	ENDS
END
